###############################################################################
#
# IAR ELF Linker V9.40.2.374/LNX for ARM BX               19/Apr/2024  13:35:05
# Copyright 2007-2023 IAR Systems AB.
#
#    Output file  =  uart2echo.out
#    Map file     =  uart2echo.map
#    Command line =
#        uart2echo.obj main_nortos.obj ti_devices_config.obj
#        ti_drivers_config.obj
#        -L/project/staging/core_examples/simplelink-lowpower-f3-sdk/source
#        -L/project/staging/core_examples/simplelink-lowpower-f3-sdk/kernel/nortos
#        -fti_utils_build_linker.cmd.genlibs
#        (ti/drivers/lib/iar/m0p/drivers_cc23x0r5.a
#        lib/iar/m0p/nortos_cc23x0r5.a
#        ti/devices/cc23x0r5/driverlib/lib/iar/driverlib.a) --config
#        ../iar/cc23x0r5_nortos.icf --map uart2echo.map --silent
#        --semihosting=iar_breakpoint --cpu=Cortex-M0+ -o uart2echo.out
#
###############################################################################

*******************************************************************************
*** RUNTIME MODEL ATTRIBUTES
***

CppFlavor       = *
__CPP_Runtime   = 1
__Heap_Handler  = DLMalloc
__SystemLibrary = DLib
__dlib_version  = 6


*******************************************************************************
*** HEAP SELECTION
***

The advanced heap was selected because the application calls
memory allocation functions outside of system library functions,
there are calls to deallocation functions in the application, and
the application appears to be primarily optimized for speed.


*******************************************************************************
*** RESERVED RANGES
***

Ranges reserved by absolute symbols:

         From           To  Size
         ----           --  ----
  0x2000'0400  0x2000'040f  0x10
  0x2000'0410  0x2000'041f  0x10


*******************************************************************************
*** PLACEMENT SUMMARY
***

"A0":  place at address 0x0 { ro section .resetVecs };
"P2":  place in [from 0x4e02'0000 to 0x4e02'07ff] { section .ccfg };
"P3":  place in [from 0x0 to 0x7'ffff] { ro };
"P4":  place in [from 0x2000'0000 to 0x2000'8fff] { rw, section .ramVecs };
define block HEAP with size = 16K, alignment = 8 { };
"P5":  place in [from 0x2000'0000 to 0x2000'8fff] { block HEAP };
define block CSTACK with size = 1K, alignment = 8 { section .stack };
"A1":  place at end of [from 0x2000'0000 to 0x2000'8fff] { block CSTACK };
do not initialize { section .stack, section .noinit };
initialize by copy { rw };
keep { section .resetVecs };
keep { section .ccfg };

No sections matched the following patterns:

  ro section .log_data  in block LOG_DATA
  ro section .log_ptr*  in block LOG_PTR
  section .s2rram       in "P1"


  Section            Kind         Address    Size  Object
  -------            ----         -------    ----  ------
"A0":                                        0x8c
  .resetVecs         const            0x0    0x8c  startup_cc23x0r5_iar.c.obj [5]
                                   - 0x8c    0x8c

"P3":                                      0x25ed
  .text              ro code         0x8c   0xa50  UART2LPF3.c.obj [4]
  .text              ro code        0xadc   0x124  RingBuf.c.obj [4]
  .text              ro code        0xc00   0x102  HwiPCC23X0_nortos.c.obj [5]
  .rodata            const          0xd02     0x1  ti_drivers_config.obj [1]
  .rodata            const          0xd03     0x1  ti_drivers_config.obj [1]
  .text              ro code        0xd04   0x418  PowerCC23X0.c.obj [4]
  .text              ro code       0x111c    0x74  uart.c.obj [3]
  .text              ro code       0x1190   0x158  SemaphoreP_nortos.c.obj [5]
  .text              ro code       0x12e8    0x38  udma.c.obj [3]
  .text              ro code       0x1320   0x210  ClockPLPF3_nortos.c.obj [5]
  .text              ro code       0x1530   0x1e8  GPIOLPF3.c.obj [4]
  .text              ro code       0x1718    0xae  I32DivModFast.o [6]
  .rodata            const         0x17c6     0x1  ti_drivers_config.obj [1]
  .text              ro code       0x17c8   0x14c  interrupt.c.obj [3]
  .text              ro code       0x1914    0x66  List.c.obj [4]
  .text              ro code       0x197c    0x7c  lrfd.c.obj [3]
  .text              ro code       0x19f8    0x4e  ABImemcpy.o [6]
  .text              ro code       0x1a48     0x2  IntDivZer.o [6]
  .text              ro code       0x1a4c   0x436  UART2.c.obj [4]
  .text              ro code       0x1e82    0x38  UART2.c.obj [4]
  .text              ro code       0x1ebc   0x1d0  ti_drivers_config.obj [1]
  .text              ro code       0x208c     0x8  cpu.c.obj [3]
  .text              ro code       0x2094    0x48  GPIO.c.obj [4]
  .text              ro code       0x20dc    0x74  UDMALPF3.c.obj [4]
  .text              ro code       0x2150     0x2  ti_drivers_config.obj [1]
  .text              ro code       0x2154   0x150  PowerCC23X0_nortos.c.obj [5]
  .text              ro code       0x22a4    0x94  uart2echo.obj [1]
  .text              ro code       0x2338     0xe  UART2.c.obj [4]
  .text              ro code       0x2346    0x22  UART2.c.obj [4]
  .text              ro code       0x2368    0x1a  UART2.c.obj [4]
  .text              ro code       0x2382    0x48  UART2.c.obj [4]
  .text              ro code       0x23ca    0x80  lz77_init_single.o [6]
  .rodata            const         0x244c    0x58  ti_drivers_config.obj [1]
  .text              ro code       0x24a4    0x3c  zero_init3.o [6]
  .text              ro code       0x24e0    0x36  startup_cc23x0r5_iar.c.obj [5]
  .text              ro code       0x2518    0x2c  setup.c.obj [3]
  .text              ro code       0x2544    0x28  data_init.o [6]
  .rodata            const         0x256c    0x24  UART2.c.obj [4]
  .iar.init_table    const         0x2590    0x20  - Linker created -
  .text              ro code       0x25b0    0x1e  cmain.o [6]
  .text              ro code       0x25ce    0x12  main_nortos.obj [1]
  .text              ro code       0x25e0     0x8  exit.o [2]
  .text              ro code       0x25e8     0x8  NoRTOS.c.obj [5]
  .text              ro code       0x25f0     0xa  cexit.o [6]
  .text              ro code       0x25fc    0x14  exit.o [7]
  .text              ro code       0x2610    0x1c  cstartup_M.o [6]
  .rodata            const         0x262c    0x10  ti_drivers_config.obj [1]
  .rodata            const         0x263c     0x8  ti_drivers_config.obj [1]
  .rodata            const         0x2644     0x8  ti_drivers_config.obj [1]
  .rodata            const         0x264c     0x4  ti_drivers_config.obj [1]
  .rodata            const         0x2650     0x0  zero_init3.o [6]
  .rodata            const         0x2650     0x0  lz77_init_single.o [6]
  Initializer bytes  const         0x2650    0x26  <for P4-P5-1>
                                 - 0x2676  0x25ea

"P4-P5", part 1 of 3:                        0x85
  P4-P5-1                     0x2000'0420    0x85  <Init block>
    .data            inited   0x2000'0420    0x68  ti_drivers_config.obj [1]
    .data            inited   0x2000'0488    0x10  PowerCC23X0.c.obj [4]
    .data            inited   0x2000'0498     0x4  HwiPCC23X0_nortos.c.obj [5]
    .data            inited   0x2000'049c     0x9  SemaphoreP_nortos.c.obj [5]
                            - 0x2000'04a5    0x85

"P4-P5", part 2 of 3:                       0x408
  .bss               zero     0x2000'04a8   0x180  ti_drivers_config.obj [1]
  .bss               zero     0x2000'0628    0x8c  HwiPCC23X0_nortos.c.obj [5]
  .bss               zero     0x2000'06b4    0x68  ti_drivers_config.obj [1]
  .bss               zero     0x2000'071c    0x68  ti_drivers_config.obj [1]
  .bss               zero     0x2000'0784    0x40  PowerCC23X0.c.obj [4]
  .bss               zero     0x2000'07c4    0x20  ti_drivers_config.obj [1]
  .bss               zero     0x2000'07e4    0x20  ti_drivers_config.obj [1]
  .bss               zero     0x2000'0804    0x20  GPIOLPF3.c.obj [4]
  .bss               zero     0x2000'0824    0x20  PowerCC23X0.c.obj [4]
  .bss               zero     0x2000'0844    0x20  ClockPLPF3_nortos.c.obj [5]
  .bss               zero     0x2000'0864    0x18  UDMALPF3.c.obj [4]
  .bss               zero     0x2000'087c    0x14  PowerCC23X0_nortos.c.obj [5]
  .bss               zero     0x2000'0890     0xc  PowerCC23X0.c.obj [4]
  .bss               zero     0x2000'089c     0x8  PowerCC23X0.c.obj [4]
  .bss               zero     0x2000'08a4     0x8  lrfd.c.obj [3]
  .bss               zero     0x2000'08ac     0x2  SemaphoreP_nortos.c.obj [5]
                            - 0x2000'08ae   0x406

"P4-P5", part 3 of 3:                        0x8c
  .ramVecs           uninit   0x2000'0900    0x8c  interrupt.c.obj [3]
                            - 0x2000'098c    0x8c

"A1":                                       0x400
  CSTACK                      0x2000'8c00   0x400  <Block>
    .stack           uninit   0x2000'8c00     0x4  startup_cc23x0r5_iar.c.obj [5]
    CSTACK           uninit   0x2000'8c04   0x3fc  <Block tail>
                            - 0x2000'9000   0x400

"P2":                                       0x800
  .ccfg              const    0x4e02'0000   0x800  ti_devices_config.obj [1]
                            - 0x4e02'0800   0x800

Unused ranges:

         From           To      Size
         ----           --      ----
       0x2679     0x7'ffff  0x7'd987
  0x2000'0000  0x2000'03ff     0x400
  0x2000'04a5  0x2000'04a7       0x3
  0x2000'08b0  0x2000'08ff      0x50
  0x2000'098c  0x2000'8bff    0x8274


*******************************************************************************
*** INIT TABLE
***

          Address      Size
          -------      ----
Zero (__iar_zero_init3)
    1 destination range, total size 0x406:
          0x2000'04a8  0x406

Copy/lz77 (__iar_lz77_init_single3)
    1 source range, total size 0x26 (28% of destination):
               0x2650   0x26
    1 destination range, total size 0x85:
          0x2000'0420   0x85



*******************************************************************************
*** MODULE SUMMARY
***

    Module                      ro code  ro data  rw data
    ------                      -------  -------  -------
command line/config:
    -----------------------------------------------------
    Total:

/project/staging/core_examples/examples/nortos/LP_EM_CC2340R5/drivers/uart2echo/iar: [1]
    main_nortos.obj                  18
    ti_devices_config.obj                  2'048
    ti_drivers_config.obj           466      156      760
    uart2echo.obj                   148
    -----------------------------------------------------
    Total:                          632    2'204      760

dl6M_tln.a: [2]
    exit.o                            8
    -----------------------------------------------------
    Total:                            8

driverlib.a: [3]
    cpu.c.obj                         8
    interrupt.c.obj                 332               140
    lrfd.c.obj                      124                 8
    setup.c.obj                      44
    uart.c.obj                      116
    udma.c.obj                       56
    -----------------------------------------------------
    Total:                          680               148

drivers_cc23x0r5.a: [4]
    GPIO.c.obj                       72
    GPIOLPF3.c.obj                  488                32
    List.c.obj                      102
    PowerCC23X0.c.obj             1'048        5      132
    RingBuf.c.obj                   292
    UART2.c.obj                   1'280       36
    UART2LPF3.c.obj               2'640
    UDMALPF3.c.obj                  116                24
    -----------------------------------------------------
    Total:                        6'038       41      188

nortos_cc23x0r5.a: [5]
    ClockPLPF3_nortos.c.obj         528                32
    HwiPCC23X0_nortos.c.obj         258        1      144
    NoRTOS.c.obj                      8
    PowerCC23X0_nortos.c.obj        336                20
    SemaphoreP_nortos.c.obj         344        3       11
    startup_cc23x0r5_iar.c.obj       54      140        4
    -----------------------------------------------------
    Total:                        1'528      144      211

rt6M_tl.a: [6]
    ABImemcpy.o                      78
    I32DivModFast.o                 174
    IntDivZer.o                       2
    cexit.o                          10
    cmain.o                          30
    cstartup_M.o                     28
    data_init.o                      40
    lz77_init_single.o              128
    zero_init3.o                     60
    -----------------------------------------------------
    Total:                          550

shb_l.a: [7]
    exit.o                           20
    -----------------------------------------------------
    Total:                           20

    Gaps                             15        2
    Linker created                            32    1'020
---------------------------------------------------------
    Grand Total:                  9'471    2'423    2'327


*******************************************************************************
*** ENTRY LIST
***

Entry                       Address   Size  Type      Object
-----                       -------   ----  ----      ------
.iar.init_table$$Base        0x2590          --   Gb  - Linker created -
.iar.init_table$$Limit       0x25b0          --   Gb  - Linker created -
?main                        0x25b1         Code  Gb  cmain.o [6]
Board_init                   0x2055   0x26  Code  Gb  ti_drivers_config.obj [1]
Board_initHook               0x2151    0x2  Code  Wk  ti_drivers_config.obj [1]
Board_sendExtFlashByte       0x1ebd  0x126  Code  Gb  ti_drivers_config.obj [1]
Board_shutDownExtFlash       0x200d   0x48  Code  Gb  ti_drivers_config.obj [1]
Board_wakeUpExtFlash         0x1fe3   0x2a  Code  Gb  ti_drivers_config.obj [1]
CPUDelay                     0x208d    0x8  Code  Gb  cpu.c.obj [3]
CSTACK$$Base            0x2000'8c00          --   Gb  - Linker created -
CSTACK$$Limit           0x2000'9000          --   Gb  - Linker created -
ClockP_add                   0x1481   0x18  Code  Gb  ClockPLPF3_nortos.c.obj [5]
ClockP_defaultParams    0x2000'0844    0xc  Data  Lc  ClockPLPF3_nortos.c.obj [5]
ClockP_destruct              0x1475    0xc  Code  Gb  ClockPLPF3_nortos.c.obj [5]
ClockP_getCpuFreq            0x1519    0xa  Code  Gb  ClockPLPF3_nortos.c.obj [5]
ClockP_hwiCallback           0x13cd   0xa8  Code  Lc  ClockPLPF3_nortos.c.obj [5]
ClockP_inWorkFunc       0x2000'0851    0x1  Data  Lc  ClockPLPF3_nortos.c.obj [5]
ClockP_initialized      0x2000'0850    0x1  Data  Lc  ClockPLPF3_nortos.c.obj [5]
ClockP_isActive              0x1515    0x4  Code  Gb  ClockPLPF3_nortos.c.obj [5]
ClockP_list             0x2000'0854    0x8  Data  Lc  ClockPLPF3_nortos.c.obj [5]
ClockP_nextScheduledTick
                        0x2000'0860    0x4  Data  Lc  ClockPLPF3_nortos.c.obj [5]
ClockP_start                 0x1499   0x60  Code  Gb  ClockPLPF3_nortos.c.obj [5]
ClockP_startDuringWorkFunc
                        0x2000'0852    0x1  Data  Lc  ClockPLPF3_nortos.c.obj [5]
ClockP_startup               0x1321   0x5a  Code  Gb  ClockPLPF3_nortos.c.obj [5]
ClockP_ticks            0x2000'085c    0x4  Data  Lc  ClockPLPF3_nortos.c.obj [5]
ClockP_walkQueueDynamic
                             0x137b   0x52  Code  Gb  ClockPLPF3_nortos.c.obj [5]
GPIO_config                  0x262c   0x10  Data  Gb  ti_drivers_config.obj [1]
GPIO_disableInt              0x1531    0xe  Code  Gb  GPIOLPF3.c.obj [4]
GPIO_hwiIntFxn               0x153f   0x58  Code  Gb  GPIOLPF3.c.obj [4]
GPIO_init                    0x1597   0xdc  Code  Gb  GPIOLPF3.c.obj [4]
GPIO_pinLowerBound            0xd02    0x1  Data  Gb  ti_drivers_config.obj [1]
GPIO_pinUpperBound            0xd03    0x1  Data  Gb  ti_drivers_config.obj [1]
GPIO_resetConfig             0x20ab   0x2a  Code  Gb  GPIO.c.obj [4]
GPIO_setCallback             0x2095   0x16  Code  Gb  GPIO.c.obj [4]
GPIO_setConfig               0x1673    0xa  Code  Gb  GPIOLPF3.c.obj [4]
GPIO_setConfigAndMux         0x168d   0x58  Code  Gb  GPIOLPF3.c.obj [4]
GPIO_write                   0x167d   0x10  Code  Gb  GPIOLPF3.c.obj [4]
HwiP_Params_init              0xcd1   0x12  Code  Gb  HwiPCC23X0_nortos.c.obj [5]
HwiP_clearInterrupt           0xc01    0x8  Code  Gb  HwiPCC23X0_nortos.c.obj [5]
HwiP_construct                0xc09   0x68  Code  Gb  HwiPCC23X0_nortos.c.obj [5]
HwiP_disable                  0xc71    0x8  Code  Gb  HwiPCC23X0_nortos.c.obj [5]
HwiP_dispatch                 0xc79   0x1c  Code  Gb  HwiPCC23X0_nortos.c.obj [5]
HwiP_dispatchTable      0x2000'0628   0x8c  Data  Lc  HwiPCC23X0_nortos.c.obj [5]
HwiP_enable                   0xc95    0x4  Code  Gb  HwiPCC23X0_nortos.c.obj [5]
HwiP_enableInterrupt          0xc99    0x8  Code  Gb  HwiPCC23X0_nortos.c.obj [5]
HwiP_inISR                    0xcad    0x8  Code  Gb  HwiPCC23X0_nortos.c.obj [5]
HwiP_interruptsEnabled        0xca1    0xc  Code  Gb  HwiPCC23X0_nortos.c.obj [5]
HwiP_restore                  0xce3    0x8  Code  Gb  HwiPCC23X0_nortos.c.obj [5]
HwiP_setFunc                  0xceb   0x18  Code  Gb  HwiPCC23X0_nortos.c.obj [5]
HwiP_swiPIntNum         0x2000'0498    0x4  Data  Gb  HwiPCC23X0_nortos.c.obj [5]
IntClearPend                 0x18bb   0x34  Code  Gb  interrupt.c.obj [3]
IntEnable                    0x1897   0x24  Code  Gb  interrupt.c.obj [3]
IntRegister                  0x17c9   0x38  Code  Gb  interrupt.c.obj [3]
IntSetPriority               0x1801   0x96  Code  Gb  interrupt.c.obj [3]
LRFDApplyClockDependencies
                             0x19ad   0x40  Code  Gb  lrfd.c.obj [3]
LRFDReleaseClockDependency
                             0x1995   0x18  Code  Gb  lrfd.c.obj [3]
LRFDSetClockDependency       0x197d   0x18  Code  Gb  lrfd.c.obj [3]
List_clearList               0x1915   0x14  Code  Gb  List.c.obj [4]
List_put                     0x1929   0x26  Code  Gb  List.c.obj [4]
List_remove                  0x194f   0x2c  Code  Gb  List.c.obj [4]
NoRTOS_start                 0x25e9    0x8  Code  Gb  NoRTOS.c.obj [5]
PowerCC23X0_config           0x263c    0x8  Data  Gb  ti_drivers_config.obj [1]
PowerCC23X0_enterStandby::controlPreStandby
                        0x2000'0494    0x4  Data  Lc  PowerCC23X0.c.obj [4]
PowerCC23X0_notify           0x108d   0x32  Code  Gb  PowerCC23X0.c.obj [4]
PowerCC23X0_oscillatorISR
                              0xf71   0x9a  Code  Lc  PowerCC23X0.c.obj [4]
PowerCC23X0_rtcISR           0x100b    0x8  Code  Lc  PowerCC23X0.c.obj [4]
PowerCC23X0_setDependencyCount
                             0x10c1   0x1c  Code  Lc  PowerCC23X0.c.obj [4]
PowerCC23X0_standbyPolicy
                             0x2155  0x126  Code  Gb  PowerCC23X0_nortos.c.obj [5]
PowerCC23X0_startHFXT        0x1019   0x6a  Code  Lc  PowerCC23X0.c.obj [4]
PowerLPF3_selectLFXT          0xf3d   0x2c  Code  Gb  PowerCC23X0.c.obj [4]
Power_disablePolicy           0xd75    0xa  Code  Gb  PowerCC23X0.c.obj [4]
Power_enablePolicy            0xd7f    0x8  Code  Gb  PowerCC23X0.c.obj [4]
Power_getConstraintMask
                              0xd87    0x6  Code  Gb  PowerCC23X0.c.obj [4]
Power_getDependencyCount
                              0xd8d   0x22  Code  Gb  PowerCC23X0.c.obj [4]
Power_idleFunc                0xdaf   0x16  Code  Gb  PowerCC23X0.c.obj [4]
Power_init                    0xd05   0x70  Code  Gb  PowerCC23X0.c.obj [4]
Power_registerNotify          0xdc5   0x24  Code  Gb  PowerCC23X0.c.obj [4]
Power_releaseConstraint
                              0xe0d   0x28  Code  Gb  PowerCC23X0.c.obj [4]
Power_releaseDependency
                              0xe7f   0x46  Code  Gb  PowerCC23X0.c.obj [4]
Power_setConstraint           0xde9   0x24  Code  Gb  PowerCC23X0.c.obj [4]
Power_setDependency           0xe35   0x4a  Code  Gb  PowerCC23X0.c.obj [4]
Power_sleep                   0xef5   0x3a  Code  Gb  PowerCC23X0.c.obj [4]
Region$$Table$$Base          0x2590          --   Gb  - Linker created -
Region$$Table$$Limit         0x25b0          --   Gb  - Linker created -
RingBuf_construct             0xadd   0x12  Code  Gb  RingBuf.c.obj [4]
RingBuf_getConsume            0xafb   0x30  Code  Gb  RingBuf.c.obj [4]
RingBuf_getCount              0xb2b    0x4  Code  Gb  RingBuf.c.obj [4]
RingBuf_getPointer            0xb2f   0x26  Code  Gb  RingBuf.c.obj [4]
RingBuf_put                   0xb55   0x32  Code  Gb  RingBuf.c.obj [4]
RingBuf_putAdvance            0xb93   0x3a  Code  Gb  RingBuf.c.obj [4]
RingBuf_putPointer            0xbcd   0x2a  Code  Gb  RingBuf.c.obj [4]
STACK_TOP {Abs}         0x2000'9000         Data  Gb  <internal module>
SemaphoreP_construct         0x1193   0x52  Code  Gb  SemaphoreP_nortos.c.obj [5]
SemaphoreP_constructBinary
                             0x11e5   0x20  Code  Gb  SemaphoreP_nortos.c.obj [5]
SemaphoreP_defaultParams
                        0x2000'049c    0x8  Data  Gb  SemaphoreP_nortos.c.obj [5]
SemaphoreP_initialized  0x2000'04a4    0x1  Data  Lc  SemaphoreP_nortos.c.obj [5]
SemaphoreP_pend              0x1205   0x98  Code  Gb  SemaphoreP_nortos.c.obj [5]
SemaphoreP_post              0x129d   0x3c  Code  Gb  SemaphoreP_nortos.c.obj [5]
SetupTrimDevice              0x2519   0x2c  Code  Gb  setup.c.obj [3]
UART2LPF3_eventCallback
                              0x603    0x2  Code  Lc  UART2LPF3.c.obj [4]
UART2LPF3_getRxData            0x99   0x30  Code  Lc  UART2LPF3.c.obj [4]
UART2LPF3_hwAttrs            0x244c   0x58  Data  Lc  ti_drivers_config.obj [1]
UART2LPF3_hwiIntFxn           0x605  0x262  Code  Lc  UART2LPF3.c.obj [4]
UART2LPF3_initHw              0x869  0x1b2  Code  Lc  UART2LPF3.c.obj [4]
UART2LPF3_initIO              0xa1b   0x3e  Code  Lc  UART2LPF3.c.obj [4]
UART2LPF3_objects       0x2000'04a8  0x180  Data  Gb  ti_drivers_config.obj [1]
UART2LPF3_postNotifyFxn
                              0xab5   0x18  Code  Lc  UART2LPF3.c.obj [4]
UART2LPF3_preNotifyFxn        0xa59   0x36  Code  Lc  UART2LPF3.c.obj [4]
UART2Support_disableTx        0x239    0xe  Code  Gb  UART2LPF3.c.obj [4]
UART2Support_dmaStartRx
                              0x251  0x124  Code  Gb  UART2LPF3.c.obj [4]
UART2Support_dmaStartTx
                              0x37d   0xc8  Code  Gb  UART2LPF3.c.obj [4]
UART2Support_dmaStopRx        0x451   0x6e  Code  Gb  UART2LPF3.c.obj [4]
UART2Support_dmaStopTx        0x4c5   0x78  Code  Gb  UART2LPF3.c.obj [4]
UART2Support_enableInts
                              0x569   0x34  Code  Gb  UART2LPF3.c.obj [4]
UART2Support_enableRx         0x59d   0x10  Code  Gb  UART2LPF3.c.obj [4]
UART2Support_enableTx         0x5ad   0x10  Code  Gb  UART2LPF3.c.obj [4]
UART2Support_powerSetConstraint
                              0x5bd    0xa  Code  Gb  UART2LPF3.c.obj [4]
UART2Support_sendData         0x5c7   0x2c  Code  Gb  UART2LPF3.c.obj [4]
UART2Support_txDone           0x5f3   0x10  Code  Gb  UART2LPF3.c.obj [4]
UART2_Params_init            0x1a4d    0xc  Code  Gb  UART2.c.obj [4]
UART2_config                 0x2644    0x8  Data  Gb  ti_drivers_config.obj [1]
UART2_count                  0x17c6    0x1  Data  Gb  ti_drivers_config.obj [1]
UART2_defaultParams          0x256c   0x24  Data  Gb  UART2.c.obj [4]
UART2_open                     0xc9  0x170  Code  Gb  UART2LPF3.c.obj [4]
UART2_read                   0x2347   0x22  Code  Wk  UART2.c.obj [4]
UART2_readFull               0x2383   0x48  Code  Wk  UART2.c.obj [4]
UART2_readTimeout            0x1a5d  0x1a0  Code  Gb  UART2.c.obj [4]
UART2_rxEnable               0x1e83   0x38  Code  Wk  UART2.c.obj [4]
UART2_write                  0x2339    0xe  Code  Wk  UART2.c.obj [4]
UART2_writeTimeout           0x2369   0x1a  Code  Wk  UART2.c.obj [4]
UART2_writeTimeoutBlocking
                             0x1bfd  0x184  Code  Gb  UART2.c.obj [4]
UART2_writeTimeoutNonblocking
                             0x1d81  0x102  Code  Gb  UART2.c.obj [4]
UARTConfigSetExpClk          0x111d   0x4c  Code  Gb  uart.c.obj [3]
UARTDisable                  0x1169   0x24  Code  Gb  uart.c.obj [3]
UDMALPF3_channelDisable
                               0x93    0x6  Code  Lc  UART2LPF3.c.obj [4]
UDMALPF3_clearInterrupt
                               0x8d    0x6  Code  Lc  UART2LPF3.c.obj [4]
UDMALPF3_config              0x264c    0x4  Data  Gb  ti_drivers_config.obj [1]
UDMALPF3_init                0x20dd   0x3a  Code  Gb  UDMALPF3.c.obj [4]
UDMALPF3_postNotifyFxn       0x2117   0x28  Code  Lc  UDMALPF3.c.obj [4]
__aeabi_idiv0                0x1a49         Code  Gb  IntDivZer.o [6]
__aeabi_memcpy               0x1a2d         Code  Gb  ABImemcpy.o [6]
__aeabi_memcpy4              0x19f9         Code  Gb  ABImemcpy.o [6]
__aeabi_memcpy8              0x19f9         Code  Gb  ABImemcpy.o [6]
__aeabi_uidiv                0x1719         Code  Gb  I32DivModFast.o [6]
__aeabi_uidivmod             0x1719         Code  Gb  I32DivModFast.o [6]
__ccfg_boot_cfg_crc32_begin {Abs}
                        0x4e02'0000         Data  Gb  <internal module>
__ccfg_boot_cfg_crc32_end {Abs}
                        0x4e02'000b         Data  Gb  <internal module>
__ccfg_crc32_begin {Abs}
                        0x4e02'0010         Data  Gb  <internal module>
__ccfg_crc32_end {Abs}  0x4e02'074b         Data  Gb  <internal module>
__ccfg_debug_cfg_crc32_begin {Abs}
                        0x4e02'07d0         Data  Gb  <internal module>
__ccfg_debug_cfg_crc32_end {Abs}
                        0x4e02'07fb         Data  Gb  <internal module>
__ccfg_user_record_crc32_begin {Abs}
                        0x4e02'0750         Data  Gb  <internal module>
__ccfg_user_record_crc32_end {Abs}
                        0x4e02'07cb         Data  Gb  <internal module>
__cmain                      0x25b1         Code  Gb  cmain.o [6]
__exit                       0x25fd   0x14  Code  Gb  exit.o [7]
__iar_Memcpy                 0x1a39         Code  Gb  ABImemcpy.o [6]
__iar_data_init3             0x2545   0x28  Code  Gb  data_init.o [6]
__iar_lz77_init_single3
                             0x23cb   0x80  Code  Gb  lz77_init_single.o [6]
__iar_program_start          0x2611         Code  Gb  cstartup_M.o [6]
__iar_zero_init3             0x24a5   0x3c  Code  Gb  zero_init3.o [6]
__low_level_init             0x24fd    0xc  Code  Gb  startup_cc23x0r5_iar.c.obj [5]
__vector_table                  0x0   0x8c  Data  Gb  startup_cc23x0r5_iar.c.obj [5]
_call_main                   0x25bd         Code  Gb  cmain.o [6]
_exit                        0x25f1         Code  Gb  cexit.o [6]
ccfg                    0x4e02'0000  0x800  Data  Gb  ti_devices_config.obj [1]
ckmHwi                  0x2000'078c   0x1c  Data  Lc  PowerCC23X0.c.obj [4]
clkFxn                       0x1191    0x2  Code  Gb  SemaphoreP_nortos.c.obj [5]
clockHwi                0x2000'07a8   0x1c  Data  Gb  PowerCC23X0.c.obj [4]
constraintCounts        0x2000'0488    0x4  Data  Lc  PowerCC23X0.c.obj [4]
constraintMask          0x2000'0490    0x4  Data  Lc  PowerCC23X0.c.obj [4]
dataLength                    0xacc    0x4  Data  Lc  UART2LPF3.c.obj [4]
dmaChannel0ControlTableEntry {Abs}
                        0x2000'0400   0x10  Data  Lc  ti_drivers_config.obj [1]
dmaChannel1ControlTableEntry {Abs}
                        0x2000'0410   0x10  Data  Lc  ti_drivers_config.obj [1]
doEnablePolicy          0x2000'08ad    0x1  Data  Lc  SemaphoreP_nortos.c.obj [5]
dummy_stack             0x2000'8c00    0x4  Data  Lc  startup_cc23x0r5_iar.c.obj [5]
exit                         0x25e1    0x8  Code  Gb  exit.o [2]
faultISR                     0x2513    0x2  Code  Lc  startup_cc23x0r5_iar.c.obj [5]
gpioCallbackFunctions   0x2000'06b4   0x68  Data  Gb  ti_drivers_config.obj [1]
gpioHwi                 0x2000'0808   0x1c  Data  Lc  GPIOLPF3.c.obj [4]
gpioPinConfigs          0x2000'0420   0x68  Data  Gb  ti_drivers_config.obj [1]
gpioUserArgs            0x2000'071c   0x68  Data  Gb  ti_drivers_config.obj [1]
initCalled              0x2000'0804    0x1  Data  Lc  GPIOLPF3.c.obj [4]
intDefaultHandler            0x2515    0x2  Code  Lc  startup_cc23x0r5_iar.c.obj [5]
isInitialized           0x2000'0785    0x1  Data  Lc  PowerCC23X0.c.obj [4]
isOpen                  0x2000'0864    0x1  Data  Lc  UDMALPF3.c.obj [4]
isPolicyEnabled         0x2000'0784    0x1  Data  Lc  PowerCC23X0.c.obj [4]
localProgramStart            0x24e1   0x1a  Code  Gb  startup_cc23x0r5_iar.c.obj [5]
lrfdClockDependencySets
                        0x2000'08a8    0x4  Data  Lc  lrfd.c.obj [3]
lrfdClocked             0x2000'08a4    0x1  Data  Lc  lrfd.c.obj [3]
main                         0x25cf   0x12  Code  Gb  main_nortos.obj [1]
mainThread                   0x22a5   0x7a  Code  Gb  uart2echo.obj [1]
mainThread::echoPrompt       0x2320   0x18  Data  Lc  uart2echo.obj [1]
nmiISR                       0x2511    0x2  Code  Lc  startup_cc23x0r5_iar.c.obj [5]
notifyList              0x2000'089c    0x8  Data  Lc  PowerCC23X0.c.obj [4]
parityType                    0xad4    0x8  Data  Lc  UART2LPF3.c.obj [4]
pendInProgress          0x2000'08ac    0x1  Data  Lc  SemaphoreP_nortos.c.obj [5]
policyFxn               0x2000'0788    0x4  Data  Lc  PowerCC23X0.c.obj [4]
postNotify              0x2000'0868   0x14  Data  Lc  UDMALPF3.c.obj [4]
powerState              0x2000'048c    0x1  Data  Lc  PowerCC23X0.c.obj [4]
ramVectorTable          0x2000'0900   0x8c  Data  Lc  interrupt.c.obj [3]
resourceCountsClkctl0   0x2000'0824   0x20  Data  Lc  PowerCC23X0.c.obj [4]
resourceCountsLrfd      0x2000'0890    0xc  Data  Lc  PowerCC23X0.c.obj [4]
stopBits                      0xad0    0x2  Data  Lc  UART2LPF3.c.obj [4]
sysTimerResolutionShift
                             0x229c    0x8  Data  Lc  PowerCC23X0_nortos.c.obj [5]
sysTimerTimeouts        0x2000'087c   0x14  Data  Lc  PowerCC23X0_nortos.c.obj [5]
uDMADisableChannelAttribute
                             0x12e9   0x22  Code  Gb  udma.c.obj [3]
uDMAGetChannelSize           0x130b    0xe  Code  Gb  udma.c.obj [3]
uart2RxRingBuffer0      0x2000'07c4   0x20  Data  Lc  ti_drivers_config.obj [1]
uart2TxRingBuffer0      0x2000'07e4   0x20  Data  Lc  ti_drivers_config.obj [1]


[1] = /project/staging/core_examples/examples/nortos/LP_EM_CC2340R5/drivers/uart2echo/iar
[2] = dl6M_tln.a
[3] = driverlib.a
[4] = drivers_cc23x0r5.a
[5] = nortos_cc23x0r5.a
[6] = rt6M_tl.a
[7] = shb_l.a

  9'471 bytes of readonly  code memory
  2'423 bytes of readonly  data memory
  2'327 bytes of readwrite data memory

Errors: none
Warnings: none
