Archive member included to satisfy reference by file (symbol)

/project/staging/core_examples/cc13xx_cc26xx_sdk/source/third_party/spiffs/lib/gcc/m4f/spiffs_cc26xx.a(spiffs_hydrogen.c.obj)
                              spiffsexternal.obj (SPIFFS_format)
/project/staging/core_examples/cc13xx_cc26xx_sdk/source/third_party/spiffs/lib/gcc/m4f/spiffs_cc26xx.a(spiffs_nucleus.c.obj)
                              /project/staging/core_examples/cc13xx_cc26xx_sdk/source/third_party/spiffs/lib/gcc/m4f/spiffs_cc26xx.a(spiffs_hydrogen.c.obj) (spiffs_obj_lu_find_entry_visitor)
/project/staging/core_examples/cc13xx_cc26xx_sdk/source/third_party/spiffs/lib/gcc/m4f/spiffs_cc26xx.a(SPIFFSNVS.c.obj)
                              spiffsexternal.obj (SPIFFSNVS_close)
/project/staging/core_examples/cc13xx_cc26xx_sdk/source/third_party/spiffs/lib/gcc/m4f/spiffs_cc26xx.a(spiffs_cache.c.obj)
                              /project/staging/core_examples/cc13xx_cc26xx_sdk/source/third_party/spiffs/lib/gcc/m4f/spiffs_cc26xx.a(spiffs_hydrogen.c.obj) (spiffs_phys_rd)
/project/staging/core_examples/cc13xx_cc26xx_sdk/source/third_party/spiffs/lib/gcc/m4f/spiffs_cc26xx.a(spiffs_check.c.obj)
                              /project/staging/core_examples/cc13xx_cc26xx_sdk/source/third_party/spiffs/lib/gcc/m4f/spiffs_cc26xx.a(spiffs_hydrogen.c.obj) (spiffs_lookup_consistency_check)
/project/staging/core_examples/cc13xx_cc26xx_sdk/source/third_party/spiffs/lib/gcc/m4f/spiffs_cc26xx.a(spiffs_gc.c.obj)
                              /project/staging/core_examples/cc13xx_cc26xx_sdk/source/third_party/spiffs/lib/gcc/m4f/spiffs_cc26xx.a(spiffs_hydrogen.c.obj) (spiffs_gc_quick)
/project/staging/core_examples/cc13xx_cc26xx_sdk/source/ti/display/lib/gcc/m4f/display_cc26x2x7.a(Display.c.obj)
                              spiffsexternal.obj (Display_doOpen)
/project/staging/core_examples/cc13xx_cc26xx_sdk/source/ti/display/lib/gcc/m4f/display_cc26x2x7.a(DisplayUart2.c.obj)
                              ti_drivers_config.obj (DisplayUart2Min_fxnTable)
/project/staging/core_examples/cc13xx_cc26xx_sdk/source/ti/drivers/lib/gcc/m4f/drivers_cc26x2x7.a(GPIO.c.obj)
                              ti_drivers_config.obj (GPIO_resetConfig)
/project/staging/core_examples/cc13xx_cc26xx_sdk/source/ti/drivers/lib/gcc/m4f/drivers_cc26x2x7.a(GPIOCC26XX.c.obj)
                              /project/staging/core_examples/cc13xx_cc26xx_sdk/source/ti/drivers/lib/gcc/m4f/drivers_cc26x2x7.a(GPIO.c.obj) (GPIO_disableInt)
/project/staging/core_examples/cc13xx_cc26xx_sdk/source/ti/drivers/lib/gcc/m4f/drivers_cc26x2x7.a(NVS.c.obj)
                              /project/staging/core_examples/cc13xx_cc26xx_sdk/source/third_party/spiffs/lib/gcc/m4f/spiffs_cc26xx.a(SPIFFSNVS.c.obj) (NVS_close)
/project/staging/core_examples/cc13xx_cc26xx_sdk/source/ti/drivers/lib/gcc/m4f/drivers_cc26x2x7.a(NVSSPI25X.c.obj)
                              ti_drivers_config.obj (NVSSPI25X_fxnTable)
/project/staging/core_examples/cc13xx_cc26xx_sdk/source/ti/drivers/lib/gcc/m4f/drivers_cc26x2x7.a(PowerCC26X2.c.obj)
                              ti_drivers_config.obj (Power_init)
/project/staging/core_examples/cc13xx_cc26xx_sdk/source/ti/drivers/lib/gcc/m4f/drivers_cc26x2x7.a(PowerCC26X2_calibrateRCOSC.c.obj)
                              /project/staging/core_examples/cc13xx_cc26xx_sdk/source/ti/drivers/lib/gcc/m4f/drivers_cc26x2x7.a(PowerCC26X2.c.obj) (PowerCC26X2_initiateCalibration)
/project/staging/core_examples/cc13xx_cc26xx_sdk/source/ti/drivers/lib/gcc/m4f/drivers_cc26x2x7.a(SPI.c.obj)
                              /project/staging/core_examples/cc13xx_cc26xx_sdk/source/ti/drivers/lib/gcc/m4f/drivers_cc26x2x7.a(NVSSPI25X.c.obj) (SPI_close)
/project/staging/core_examples/cc13xx_cc26xx_sdk/source/ti/drivers/lib/gcc/m4f/drivers_cc26x2x7.a(TemperatureCC26X2.c.obj)
                              /project/staging/core_examples/cc13xx_cc26xx_sdk/source/ti/drivers/lib/gcc/m4f/drivers_cc26x2x7.a(PowerCC26X2.c.obj) (Temperature_init)
/project/staging/core_examples/cc13xx_cc26xx_sdk/source/ti/drivers/lib/gcc/m4f/drivers_cc26x2x7.a(UART2.c.obj)
                              /project/staging/core_examples/cc13xx_cc26xx_sdk/source/ti/display/lib/gcc/m4f/display_cc26x2x7.a(DisplayUart2.c.obj) (UART2_Params_init)
/project/staging/core_examples/cc13xx_cc26xx_sdk/source/ti/drivers/lib/gcc/m4f/drivers_cc26x2x7.a(UART2CC26X2.c.obj)
                              /project/staging/core_examples/cc13xx_cc26xx_sdk/source/ti/display/lib/gcc/m4f/display_cc26x2x7.a(DisplayUart2.c.obj) (UART2_close)
/project/staging/core_examples/cc13xx_cc26xx_sdk/source/ti/drivers/lib/gcc/m4f/drivers_cc26x2x7.a(GPIOCC26X2.c.obj)
                              ti_drivers_config.obj (GPIO_init)
/project/staging/core_examples/cc13xx_cc26xx_sdk/source/ti/drivers/lib/gcc/m4f/drivers_cc26x2x7.a(PowerCC26X2_calibrateRCOSC_helpers.c.obj)
                              /project/staging/core_examples/cc13xx_cc26xx_sdk/source/ti/drivers/lib/gcc/m4f/drivers_cc26x2x7.a(PowerCC26X2_calibrateRCOSC.c.obj) (PowerCC26X2_updateSubSecInc)
/project/staging/core_examples/cc13xx_cc26xx_sdk/source/ti/drivers/lib/gcc/m4f/drivers_cc26x2x7.a(PowerCC26X2_helpers.c.obj)
                              /project/staging/core_examples/cc13xx_cc26xx_sdk/source/ti/drivers/lib/gcc/m4f/drivers_cc26x2x7.a(PowerCC26X2.c.obj) (PowerCC26X2_oscCtlClearXtal)
/project/staging/core_examples/cc13xx_cc26xx_sdk/source/ti/drivers/lib/gcc/m4f/drivers_cc26x2x7.a(SPICC26X2DMA.c.obj)
                              ti_drivers_config.obj (SPICC26X2DMA_fxnTable)
/project/staging/core_examples/cc13xx_cc26xx_sdk/source/ti/drivers/lib/gcc/m4f/drivers_cc26x2x7.a(List.c.obj)
                              /project/staging/core_examples/cc13xx_cc26xx_sdk/source/ti/drivers/lib/gcc/m4f/drivers_cc26x2x7.a(PowerCC26X2.c.obj) (List_put)
/project/staging/core_examples/cc13xx_cc26xx_sdk/source/ti/drivers/lib/gcc/m4f/drivers_cc26x2x7.a(RingBuf.c.obj)
                              /project/staging/core_examples/cc13xx_cc26xx_sdk/source/ti/drivers/lib/gcc/m4f/drivers_cc26x2x7.a(UART2CC26X2.c.obj) (RingBuf_construct)
/project/staging/core_examples/cc13xx_cc26xx_sdk/source/ti/drivers/lib/gcc/m4f/drivers_cc26x2x7.a(UDMACC26XX.c.obj)
                              /project/staging/core_examples/cc13xx_cc26xx_sdk/source/ti/drivers/lib/gcc/m4f/drivers_cc26x2x7.a(UART2CC26X2.c.obj) (UDMACC26XX_open)
/project/staging/core_examples/cc13xx_cc26xx_sdk/kernel/nortos/lib/gcc/m4f/nortos_cc26x2x7.a(NoRTOS.c.obj)
                              main_nortos.obj (NoRTOS_start)
/project/staging/core_examples/cc13xx_cc26xx_sdk/kernel/nortos/lib/gcc/m4f/nortos_cc26x2x7.a(MutexP_nortos.c.obj)
                              /project/staging/core_examples/cc13xx_cc26xx_sdk/source/third_party/spiffs/lib/gcc/m4f/spiffs_cc26xx.a(SPIFFSNVS.c.obj) (MutexP_create)
/project/staging/core_examples/cc13xx_cc26xx_sdk/kernel/nortos/lib/gcc/m4f/nortos_cc26x2x7.a(SemaphoreP_nortos.c.obj)
                              /project/staging/core_examples/cc13xx_cc26xx_sdk/source/ti/drivers/lib/gcc/m4f/drivers_cc26x2x7.a(UART2CC26X2.c.obj) (SemaphoreP_constructBinary)
/project/staging/core_examples/cc13xx_cc26xx_sdk/kernel/nortos/lib/gcc/m4f/nortos_cc26x2x7.a(SwiP_nortos.c.obj)
                              /project/staging/core_examples/cc13xx_cc26xx_sdk/source/ti/drivers/lib/gcc/m4f/drivers_cc26x2x7.a(SPICC26X2DMA.c.obj) (SwiP_Params_init)
/project/staging/core_examples/cc13xx_cc26xx_sdk/kernel/nortos/lib/gcc/m4f/nortos_cc26x2x7.a(SystemP_nortos.c.obj)
                              /project/staging/core_examples/cc13xx_cc26xx_sdk/source/ti/display/lib/gcc/m4f/display_cc26x2x7.a(DisplayUart2.c.obj) (SystemP_snprintf)
/project/staging/core_examples/cc13xx_cc26xx_sdk/kernel/nortos/lib/gcc/m4f/nortos_cc26x2x7.a(ClockPTimer_nortos.c.obj)
                              /project/staging/core_examples/cc13xx_cc26xx_sdk/source/ti/drivers/lib/gcc/m4f/drivers_cc26x2x7.a(PowerCC26X2.c.obj) (ClockP_Params_init)
/project/staging/core_examples/cc13xx_cc26xx_sdk/kernel/nortos/lib/gcc/m4f/nortos_cc26x2x7.a(QueueP_nortos.c.obj)
                              /project/staging/core_examples/cc13xx_cc26xx_sdk/kernel/nortos/lib/gcc/m4f/nortos_cc26x2x7.a(SwiP_nortos.c.obj) (QueueP_init)
/project/staging/core_examples/cc13xx_cc26xx_sdk/kernel/nortos/lib/gcc/m4f/nortos_cc26x2x7.a(HwiPCC26XX_nortos.c.obj)
                              /project/staging/core_examples/cc13xx_cc26xx_sdk/kernel/nortos/lib/gcc/m4f/nortos_cc26x2x7.a(NoRTOS.c.obj) (HwiP_enable)
/project/staging/core_examples/cc13xx_cc26xx_sdk/kernel/nortos/lib/gcc/m4f/nortos_cc26x2x7.a(PowerCC26X2_nortos.c.obj)
                              ti_drivers_config.obj (PowerCC26XX_standbyPolicy)
/project/staging/core_examples/cc13xx_cc26xx_sdk/kernel/nortos/lib/gcc/m4f/nortos_cc26x2x7.a(TimerPCC26XX_nortos.c.obj)
                              /project/staging/core_examples/cc13xx_cc26xx_sdk/kernel/nortos/lib/gcc/m4f/nortos_cc26x2x7.a(ClockPTimer_nortos.c.obj) (TimerP_Params_init)
/project/staging/core_examples/cc13xx_cc26xx_sdk/kernel/nortos/lib/gcc/m4f/nortos_cc26x2x7.a(startup_cc13x2_cc26x2_gcc.c.obj)
                              (resetISR)
/project/staging/core_examples/cc13xx_cc26xx_sdk/source/ti/devices/cc13x2x7_cc26x2x7/driverlib/bin/gcc/driverlib.lib(cpu.c.obj)
                              /project/staging/core_examples/cc13xx_cc26xx_sdk/source/ti/drivers/lib/gcc/m4f/drivers_cc26x2x7.a(PowerCC26X2_helpers.c.obj) (NOROM_CPUcpsid)
/project/staging/core_examples/cc13xx_cc26xx_sdk/source/ti/devices/cc13x2x7_cc26x2x7/driverlib/bin/gcc/driverlib.lib(interrupt.c.obj)
                              /project/staging/core_examples/cc13xx_cc26xx_sdk/kernel/nortos/lib/gcc/m4f/nortos_cc26x2x7.a(HwiPCC26XX_nortos.c.obj) (NOROM_IntRegister)
/project/staging/core_examples/cc13xx_cc26xx_sdk/source/ti/devices/cc13x2x7_cc26x2x7/driverlib/bin/gcc/driverlib.lib(osc.c.obj)
                              /project/staging/core_examples/cc13xx_cc26xx_sdk/source/ti/drivers/lib/gcc/m4f/drivers_cc26x2x7.a(PowerCC26X2.c.obj) (NOROM_OSCHF_GetStartupTime)
/project/staging/core_examples/cc13xx_cc26xx_sdk/source/ti/devices/cc13x2x7_cc26x2x7/driverlib/bin/gcc/driverlib.lib(prcm.c.obj)
                              /project/staging/core_examples/cc13xx_cc26xx_sdk/source/ti/drivers/lib/gcc/m4f/drivers_cc26x2x7.a(PowerCC26X2.c.obj) (NOROM_PRCMPowerDomainsAllOff)
/project/staging/core_examples/cc13xx_cc26xx_sdk/source/ti/devices/cc13x2x7_cc26x2x7/driverlib/bin/gcc/driverlib.lib(setup.c.obj)
                              /project/staging/core_examples/cc13xx_cc26xx_sdk/kernel/nortos/lib/gcc/m4f/nortos_cc26x2x7.a(startup_cc13x2_cc26x2_gcc.c.obj) (NOROM_SetupTrimDevice)
/project/staging/core_examples/cc13xx_cc26xx_sdk/source/ti/devices/cc13x2x7_cc26x2x7/driverlib/bin/gcc/driverlib.lib(sys_ctrl.c.obj)
                              /project/staging/core_examples/cc13xx_cc26xx_sdk/source/ti/drivers/lib/gcc/m4f/drivers_cc26x2x7.a(PowerCC26X2_helpers.c.obj) (NOROM_SysCtrlIdle)
/project/staging/core_examples/cc13xx_cc26xx_sdk/source/ti/devices/cc13x2x7_cc26x2x7/driverlib/bin/gcc/driverlib.lib(aux_sysif.c.obj)
                              /project/staging/core_examples/cc13xx_cc26xx_sdk/source/ti/devices/cc13x2x7_cc26x2x7/driverlib/bin/gcc/driverlib.lib(setup.c.obj) (NOROM_AUXSYSIFOpModeChange)
/project/staging/core_examples/cc13xx_cc26xx_sdk/source/ti/devices/cc13x2x7_cc26x2x7/driverlib/bin/gcc/driverlib.lib(chipinfo.c.obj)
                              /project/staging/core_examples/cc13xx_cc26xx_sdk/source/ti/devices/cc13x2x7_cc26x2x7/driverlib/bin/gcc/driverlib.lib(setup.c.obj) (NOROM_ThisLibraryIsFor_CC13x2x7_CC26x2x7_HaltIfViolated)
/home/developer/.conan/data/arm-none-eabi-gcc/9.2019.q4.major-0/library-msp/ga/package/44fcf6b9a7fb86b2586303e3db40189d3b511830/bin/../lib/gcc/arm-none-eabi/9.2.1/thumb/v7e-m+fp/hard/libgcc.a(_arm_muldf3.o)
                              /project/staging/core_examples/cc13xx_cc26xx_sdk/kernel/nortos/lib/gcc/m4f/nortos_cc26x2x7.a(SystemP_nortos.c.obj) (__aeabi_dmul)
/home/developer/.conan/data/arm-none-eabi-gcc/9.2019.q4.major-0/library-msp/ga/package/44fcf6b9a7fb86b2586303e3db40189d3b511830/bin/../lib/gcc/arm-none-eabi/9.2.1/thumb/v7e-m+fp/hard/libgcc.a(_arm_addsubdf3.o)
                              /project/staging/core_examples/cc13xx_cc26xx_sdk/kernel/nortos/lib/gcc/m4f/nortos_cc26x2x7.a(SystemP_nortos.c.obj) (__aeabi_dsub)
/home/developer/.conan/data/arm-none-eabi-gcc/9.2019.q4.major-0/library-msp/ga/package/44fcf6b9a7fb86b2586303e3db40189d3b511830/bin/../lib/gcc/arm-none-eabi/9.2.1/thumb/v7e-m+fp/hard/libgcc.a(_arm_cmpdf2.o)
                              /project/staging/core_examples/cc13xx_cc26xx_sdk/kernel/nortos/lib/gcc/m4f/nortos_cc26x2x7.a(SystemP_nortos.c.obj) (__aeabi_dcmplt)
/home/developer/.conan/data/arm-none-eabi-gcc/9.2019.q4.major-0/library-msp/ga/package/44fcf6b9a7fb86b2586303e3db40189d3b511830/bin/../lib/gcc/arm-none-eabi/9.2.1/thumb/v7e-m+fp/hard/libgcc.a(_arm_fixdfsi.o)
                              /project/staging/core_examples/cc13xx_cc26xx_sdk/kernel/nortos/lib/gcc/m4f/nortos_cc26x2x7.a(SystemP_nortos.c.obj) (__aeabi_d2iz)
/home/developer/.conan/data/arm-none-eabi-gcc/9.2019.q4.major-0/library-msp/ga/package/44fcf6b9a7fb86b2586303e3db40189d3b511830/bin/../lib/gcc/arm-none-eabi/9.2.1/thumb/v7e-m+fp/hard/libgcc.a(_arm_fixunsdfsi.o)
                              /project/staging/core_examples/cc13xx_cc26xx_sdk/kernel/nortos/lib/gcc/m4f/nortos_cc26x2x7.a(SystemP_nortos.c.obj) (__aeabi_d2uiz)
/home/developer/.conan/data/arm-none-eabi-gcc/9.2019.q4.major-0/library-msp/ga/package/44fcf6b9a7fb86b2586303e3db40189d3b511830/bin/../lib/gcc/arm-none-eabi/9.2.1/thumb/v7e-m+fp/hard/libgcc.a(_aeabi_ldivmod.o)
                              /project/staging/core_examples/cc13xx_cc26xx_sdk/source/ti/drivers/lib/gcc/m4f/drivers_cc26x2x7.a(PowerCC26X2.c.obj) (__aeabi_ldivmod)
/home/developer/.conan/data/arm-none-eabi-gcc/9.2019.q4.major-0/library-msp/ga/package/44fcf6b9a7fb86b2586303e3db40189d3b511830/bin/../lib/gcc/arm-none-eabi/9.2.1/thumb/v7e-m+fp/hard/libgcc.a(_aeabi_uldivmod.o)
                              /project/staging/core_examples/cc13xx_cc26xx_sdk/kernel/nortos/lib/gcc/m4f/nortos_cc26x2x7.a(ClockPTimer_nortos.c.obj) (__aeabi_uldivmod)
/home/developer/.conan/data/arm-none-eabi-gcc/9.2019.q4.major-0/library-msp/ga/package/44fcf6b9a7fb86b2586303e3db40189d3b511830/bin/../lib/gcc/arm-none-eabi/9.2.1/thumb/v7e-m+fp/hard/libgcc.a(_udivmoddi4.o)
                              /home/developer/.conan/data/arm-none-eabi-gcc/9.2019.q4.major-0/library-msp/ga/package/44fcf6b9a7fb86b2586303e3db40189d3b511830/bin/../lib/gcc/arm-none-eabi/9.2.1/thumb/v7e-m+fp/hard/libgcc.a(_aeabi_ldivmod.o) (__udivmoddi4)
/home/developer/.conan/data/arm-none-eabi-gcc/9.2019.q4.major-0/library-msp/ga/package/44fcf6b9a7fb86b2586303e3db40189d3b511830/bin/../lib/gcc/arm-none-eabi/9.2.1/thumb/v7e-m+fp/hard/libgcc.a(_dvmd_tls.o)
                              /home/developer/.conan/data/arm-none-eabi-gcc/9.2019.q4.major-0/library-msp/ga/package/44fcf6b9a7fb86b2586303e3db40189d3b511830/bin/../lib/gcc/arm-none-eabi/9.2.1/thumb/v7e-m+fp/hard/libgcc.a(_aeabi_ldivmod.o) (__aeabi_ldiv0)
/home/developer/.conan/data/arm-none-eabi-gcc/9.2019.q4.major-0/library-msp/ga/package/44fcf6b9a7fb86b2586303e3db40189d3b511830/bin/../lib/gcc/arm-none-eabi/9.2.1/../../../../arm-none-eabi/lib/thumb/v7e-m+fp/hard/libc_nano.a(lib_a-malloc.o)
                              /project/staging/core_examples/cc13xx_cc26xx_sdk/kernel/nortos/lib/gcc/m4f/nortos_cc26x2x7.a(MutexP_nortos.c.obj) (malloc)
/home/developer/.conan/data/arm-none-eabi-gcc/9.2019.q4.major-0/library-msp/ga/package/44fcf6b9a7fb86b2586303e3db40189d3b511830/bin/../lib/gcc/arm-none-eabi/9.2.1/../../../../arm-none-eabi/lib/thumb/v7e-m+fp/hard/libc_nano.a(lib_a-memcpy-stub.o)
                              /project/staging/core_examples/cc13xx_cc26xx_sdk/source/third_party/spiffs/lib/gcc/m4f/spiffs_cc26xx.a(spiffs_hydrogen.c.obj) (memcpy)
/home/developer/.conan/data/arm-none-eabi-gcc/9.2019.q4.major-0/library-msp/ga/package/44fcf6b9a7fb86b2586303e3db40189d3b511830/bin/../lib/gcc/arm-none-eabi/9.2.1/../../../../arm-none-eabi/lib/thumb/v7e-m+fp/hard/libc_nano.a(lib_a-memset.o)
                              /project/staging/core_examples/cc13xx_cc26xx_sdk/source/third_party/spiffs/lib/gcc/m4f/spiffs_cc26xx.a(spiffs_hydrogen.c.obj) (memset)
/home/developer/.conan/data/arm-none-eabi-gcc/9.2019.q4.major-0/library-msp/ga/package/44fcf6b9a7fb86b2586303e3db40189d3b511830/bin/../lib/gcc/arm-none-eabi/9.2.1/../../../../arm-none-eabi/lib/thumb/v7e-m+fp/hard/libc_nano.a(lib_a-nano-freer.o)
                              /home/developer/.conan/data/arm-none-eabi-gcc/9.2019.q4.major-0/library-msp/ga/package/44fcf6b9a7fb86b2586303e3db40189d3b511830/bin/../lib/gcc/arm-none-eabi/9.2.1/../../../../arm-none-eabi/lib/thumb/v7e-m+fp/hard/libc_nano.a(lib_a-malloc.o) (_free_r)
/home/developer/.conan/data/arm-none-eabi-gcc/9.2019.q4.major-0/library-msp/ga/package/44fcf6b9a7fb86b2586303e3db40189d3b511830/bin/../lib/gcc/arm-none-eabi/9.2.1/../../../../arm-none-eabi/lib/thumb/v7e-m+fp/hard/libc_nano.a(lib_a-nano-mallocr.o)
                              /home/developer/.conan/data/arm-none-eabi-gcc/9.2019.q4.major-0/library-msp/ga/package/44fcf6b9a7fb86b2586303e3db40189d3b511830/bin/../lib/gcc/arm-none-eabi/9.2.1/../../../../arm-none-eabi/lib/thumb/v7e-m+fp/hard/libc_nano.a(lib_a-malloc.o) (_malloc_r)
/home/developer/.conan/data/arm-none-eabi-gcc/9.2019.q4.major-0/library-msp/ga/package/44fcf6b9a7fb86b2586303e3db40189d3b511830/bin/../lib/gcc/arm-none-eabi/9.2.1/../../../../arm-none-eabi/lib/thumb/v7e-m+fp/hard/libc_nano.a(lib_a-sbrkr.o)
                              /home/developer/.conan/data/arm-none-eabi-gcc/9.2019.q4.major-0/library-msp/ga/package/44fcf6b9a7fb86b2586303e3db40189d3b511830/bin/../lib/gcc/arm-none-eabi/9.2.1/../../../../arm-none-eabi/lib/thumb/v7e-m+fp/hard/libc_nano.a(lib_a-nano-mallocr.o) (_sbrk_r)
/home/developer/.conan/data/arm-none-eabi-gcc/9.2019.q4.major-0/library-msp/ga/package/44fcf6b9a7fb86b2586303e3db40189d3b511830/bin/../lib/gcc/arm-none-eabi/9.2.1/../../../../arm-none-eabi/lib/thumb/v7e-m+fp/hard/libc_nano.a(lib_a-strcmp.o)
                              /project/staging/core_examples/cc13xx_cc26xx_sdk/source/third_party/spiffs/lib/gcc/m4f/spiffs_cc26xx.a(spiffs_nucleus.c.obj) (strcmp)
/home/developer/.conan/data/arm-none-eabi-gcc/9.2019.q4.major-0/library-msp/ga/package/44fcf6b9a7fb86b2586303e3db40189d3b511830/bin/../lib/gcc/arm-none-eabi/9.2.1/../../../../arm-none-eabi/lib/thumb/v7e-m+fp/hard/libc_nano.a(lib_a-strcpy.o)
                              /project/staging/core_examples/cc13xx_cc26xx_sdk/source/third_party/spiffs/lib/gcc/m4f/spiffs_cc26xx.a(spiffs_hydrogen.c.obj) (strcpy)
/home/developer/.conan/data/arm-none-eabi-gcc/9.2019.q4.major-0/library-msp/ga/package/44fcf6b9a7fb86b2586303e3db40189d3b511830/bin/../lib/gcc/arm-none-eabi/9.2.1/../../../../arm-none-eabi/lib/thumb/v7e-m+fp/hard/libc_nano.a(lib_a-strlen.o)
                              /project/staging/core_examples/cc13xx_cc26xx_sdk/source/third_party/spiffs/lib/gcc/m4f/spiffs_cc26xx.a(spiffs_hydrogen.c.obj) (strlen)
/home/developer/.conan/data/arm-none-eabi-gcc/9.2019.q4.major-0/library-msp/ga/package/44fcf6b9a7fb86b2586303e3db40189d3b511830/bin/../lib/gcc/arm-none-eabi/9.2.1/../../../../arm-none-eabi/lib/thumb/v7e-m+fp/hard/libc_nano.a(lib_a-strncpy.o)
                              /project/staging/core_examples/cc13xx_cc26xx_sdk/source/third_party/spiffs/lib/gcc/m4f/spiffs_cc26xx.a(spiffs_hydrogen.c.obj) (strncpy)
/home/developer/.conan/data/arm-none-eabi-gcc/9.2019.q4.major-0/library-msp/ga/package/44fcf6b9a7fb86b2586303e3db40189d3b511830/bin/../lib/gcc/arm-none-eabi/9.2.1/../../../../arm-none-eabi/lib/thumb/v7e-m+fp/hard/libc_nano.a(lib_a-impure.o)
                              /home/developer/.conan/data/arm-none-eabi-gcc/9.2019.q4.major-0/library-msp/ga/package/44fcf6b9a7fb86b2586303e3db40189d3b511830/bin/../lib/gcc/arm-none-eabi/9.2.1/../../../../arm-none-eabi/lib/thumb/v7e-m+fp/hard/libc_nano.a(lib_a-malloc.o) (_impure_ptr)
/home/developer/.conan/data/arm-none-eabi-gcc/9.2019.q4.major-0/library-msp/ga/package/44fcf6b9a7fb86b2586303e3db40189d3b511830/bin/../lib/gcc/arm-none-eabi/9.2.1/../../../../arm-none-eabi/lib/thumb/v7e-m+fp/hard/libc_nano.a(lib_a-mlock.o)
                              /home/developer/.conan/data/arm-none-eabi-gcc/9.2019.q4.major-0/library-msp/ga/package/44fcf6b9a7fb86b2586303e3db40189d3b511830/bin/../lib/gcc/arm-none-eabi/9.2.1/../../../../arm-none-eabi/lib/thumb/v7e-m+fp/hard/libc_nano.a(lib_a-nano-freer.o) (__malloc_lock)
/home/developer/.conan/data/arm-none-eabi-gcc/9.2019.q4.major-0/library-msp/ga/package/44fcf6b9a7fb86b2586303e3db40189d3b511830/bin/../lib/gcc/arm-none-eabi/9.2.1/../../../../arm-none-eabi/lib/thumb/v7e-m+fp/hard/libc_nano.a(lib_a-reent.o)
                              /home/developer/.conan/data/arm-none-eabi-gcc/9.2019.q4.major-0/library-msp/ga/package/44fcf6b9a7fb86b2586303e3db40189d3b511830/bin/../lib/gcc/arm-none-eabi/9.2.1/../../../../arm-none-eabi/lib/thumb/v7e-m+fp/hard/libc_nano.a(lib_a-sbrkr.o) (errno)
/home/developer/.conan/data/arm-none-eabi-gcc/9.2019.q4.major-0/library-msp/ga/package/44fcf6b9a7fb86b2586303e3db40189d3b511830/bin/../lib/gcc/arm-none-eabi/9.2.1/../../../../arm-none-eabi/lib/thumb/v7e-m+fp/hard/libc_nano.a(lib_a-lock.o)
                              /home/developer/.conan/data/arm-none-eabi-gcc/9.2019.q4.major-0/library-msp/ga/package/44fcf6b9a7fb86b2586303e3db40189d3b511830/bin/../lib/gcc/arm-none-eabi/9.2.1/../../../../arm-none-eabi/lib/thumb/v7e-m+fp/hard/libc_nano.a(lib_a-mlock.o) (__retarget_lock_acquire_recursive)
/home/developer/.conan/data/arm-none-eabi-gcc/9.2019.q4.major-0/library-msp/ga/package/44fcf6b9a7fb86b2586303e3db40189d3b511830/bin/../lib/gcc/arm-none-eabi/9.2.1/../../../../arm-none-eabi/lib/thumb/v7e-m+fp/hard/libnosys.a(sbrk.o)
                              /home/developer/.conan/data/arm-none-eabi-gcc/9.2019.q4.major-0/library-msp/ga/package/44fcf6b9a7fb86b2586303e3db40189d3b511830/bin/../lib/gcc/arm-none-eabi/9.2.1/../../../../arm-none-eabi/lib/thumb/v7e-m+fp/hard/libc_nano.a(lib_a-sbrkr.o) (_sbrk)

Allocating common symbols
Common symbol       size              file

spiffsnvsData       0x14              spiffsexternal.obj
uart2CC26X2Objects  0x170             ti_drivers_config.obj
__lock___atexit_recursive_mutex
                    0x1               /home/developer/.conan/data/arm-none-eabi-gcc/9.2019.q4.major-0/library-msp/ga/package/44fcf6b9a7fb86b2586303e3db40189d3b511830/bin/../lib/gcc/arm-none-eabi/9.2.1/../../../../arm-none-eabi/lib/thumb/v7e-m+fp/hard/libc_nano.a(lib_a-lock.o)
__lock___arc4random_mutex
                    0x1               /home/developer/.conan/data/arm-none-eabi-gcc/9.2019.q4.major-0/library-msp/ga/package/44fcf6b9a7fb86b2586303e3db40189d3b511830/bin/../lib/gcc/arm-none-eabi/9.2.1/../../../../arm-none-eabi/lib/thumb/v7e-m+fp/hard/libc_nano.a(lib_a-lock.o)
displayUart2Object  0xc               ti_drivers_config.obj
errno               0x4               /home/developer/.conan/data/arm-none-eabi-gcc/9.2019.q4.major-0/library-msp/ga/package/44fcf6b9a7fb86b2586303e3db40189d3b511830/bin/../lib/gcc/arm-none-eabi/9.2.1/../../../../arm-none-eabi/lib/thumb/v7e-m+fp/hard/libc_nano.a(lib_a-reent.o)
fs                  0x74              spiffsexternal.obj
spiCC26X2DMAObjects
                    0x100             ti_drivers_config.obj
readBuffer          0x16              spiffsexternal.obj
__lock___env_recursive_mutex
                    0x1               /home/developer/.conan/data/arm-none-eabi-gcc/9.2019.q4.major-0/library-msp/ga/package/44fcf6b9a7fb86b2586303e3db40189d3b511830/bin/../lib/gcc/arm-none-eabi/9.2.1/../../../../arm-none-eabi/lib/thumb/v7e-m+fp/hard/libc_nano.a(lib_a-lock.o)
__lock___sinit_recursive_mutex
                    0x1               /home/developer/.conan/data/arm-none-eabi-gcc/9.2019.q4.major-0/library-msp/ga/package/44fcf6b9a7fb86b2586303e3db40189d3b511830/bin/../lib/gcc/arm-none-eabi/9.2.1/../../../../arm-none-eabi/lib/thumb/v7e-m+fp/hard/libc_nano.a(lib_a-lock.o)
__lock___malloc_recursive_mutex
                    0x1               /home/developer/.conan/data/arm-none-eabi-gcc/9.2019.q4.major-0/library-msp/ga/package/44fcf6b9a7fb86b2586303e3db40189d3b511830/bin/../lib/gcc/arm-none-eabi/9.2.1/../../../../arm-none-eabi/lib/thumb/v7e-m+fp/hard/libc_nano.a(lib_a-lock.o)
nvsSPI25XObjects    0xc               ti_drivers_config.obj
gpioCallbackFunctions
                    0x7c              ti_drivers_config.obj
udmaCC26XXObject    0x20              ti_drivers_config.obj
__lock___at_quick_exit_mutex
                    0x1               /home/developer/.conan/data/arm-none-eabi-gcc/9.2019.q4.major-0/library-msp/ga/package/44fcf6b9a7fb86b2586303e3db40189d3b511830/bin/../lib/gcc/arm-none-eabi/9.2.1/../../../../arm-none-eabi/lib/thumb/v7e-m+fp/hard/libc_nano.a(lib_a-lock.o)
__lock___dd_hash_mutex
                    0x1               /home/developer/.conan/data/arm-none-eabi-gcc/9.2019.q4.major-0/library-msp/ga/package/44fcf6b9a7fb86b2586303e3db40189d3b511830/bin/../lib/gcc/arm-none-eabi/9.2.1/../../../../arm-none-eabi/lib/thumb/v7e-m+fp/hard/libc_nano.a(lib_a-lock.o)
__lock___tz_mutex   0x1               /home/developer/.conan/data/arm-none-eabi-gcc/9.2019.q4.major-0/library-msp/ga/package/44fcf6b9a7fb86b2586303e3db40189d3b511830/bin/../lib/gcc/arm-none-eabi/9.2.1/../../../../arm-none-eabi/lib/thumb/v7e-m+fp/hard/libc_nano.a(lib_a-lock.o)
__lock___sfp_recursive_mutex
                    0x1               /home/developer/.conan/data/arm-none-eabi-gcc/9.2019.q4.major-0/library-msp/ga/package/44fcf6b9a7fb86b2586303e3db40189d3b511830/bin/../lib/gcc/arm-none-eabi/9.2.1/../../../../arm-none-eabi/lib/thumb/v7e-m+fp/hard/libc_nano.a(lib_a-lock.o)
gpioUserArgs        0x7c              ti_drivers_config.obj

Discarded input sections

 .text          0x0000000000000000        0x0 spiffsexternal.obj
 .data          0x0000000000000000        0x0 spiffsexternal.obj
 .bss           0x0000000000000000        0x0 spiffsexternal.obj
 .text          0x0000000000000000        0x0 main_nortos.obj
 .data          0x0000000000000000        0x0 main_nortos.obj
 .bss           0x0000000000000000        0x0 main_nortos.obj
 .text          0x0000000000000000        0x0 ti_devices_config.obj
 .data          0x0000000000000000        0x0 ti_devices_config.obj
 .bss           0x0000000000000000        0x0 ti_devices_config.obj
 .text          0x0000000000000000        0x0 ti_drivers_config.obj
 .data          0x0000000000000000        0x0 ti_drivers_config.obj
 .bss           0x0000000000000000        0x0 ti_drivers_config.obj
 .text.Board_sendExtFlashByte
                0x0000000000000000       0x54 ti_drivers_config.obj
 .text.Board_wakeUpExtFlash
                0x0000000000000000       0x30 ti_drivers_config.obj
 .rodata.CONFIG_GPIO_0_CONST
                0x0000000000000000        0x1 ti_drivers_config.obj
 .rodata.CONFIG_GPIO_SPI_0_PICO_CONST
                0x0000000000000000        0x1 ti_drivers_config.obj
 .rodata.CONFIG_GPIO_SPI_0_POCI_CONST
                0x0000000000000000        0x1 ti_drivers_config.obj
 .rodata.CONFIG_GPIO_SPI_0_SCLK_CONST
                0x0000000000000000        0x1 ti_drivers_config.obj
 .rodata.CONFIG_GPIO_UART2_0_RX_CONST
                0x0000000000000000        0x1 ti_drivers_config.obj
 .rodata.CONFIG_GPIO_UART2_0_TX_CONST
                0x0000000000000000        0x1 ti_drivers_config.obj
 .rodata.CONFIG_NVSEXTERNAL_CONST
                0x0000000000000000        0x1 ti_drivers_config.obj
 .rodata.CONFIG_SPI_0_CONST
                0x0000000000000000        0x1 ti_drivers_config.obj
 .rodata.CONFIG_UART2_0_CONST
                0x0000000000000000        0x1 ti_drivers_config.obj
 .text          0x0000000000000000        0x0 /project/staging/core_examples/cc13xx_cc26xx_sdk/source/third_party/spiffs/lib/gcc/m4f/spiffs_cc26xx.a(spiffs_hydrogen.c.obj)
 .data          0x0000000000000000        0x0 /project/staging/core_examples/cc13xx_cc26xx_sdk/source/third_party/spiffs/lib/gcc/m4f/spiffs_cc26xx.a(spiffs_hydrogen.c.obj)
 .bss           0x0000000000000000        0x0 /project/staging/core_examples/cc13xx_cc26xx_sdk/source/third_party/spiffs/lib/gcc/m4f/spiffs_cc26xx.a(spiffs_hydrogen.c.obj)
 .text.spiffs_read_dir_v
                0x0000000000000000       0xa0 /project/staging/core_examples/cc13xx_cc26xx_sdk/source/third_party/spiffs/lib/gcc/m4f/spiffs_cc26xx.a(spiffs_hydrogen.c.obj)
 .text.SPIFFS_buffer_bytes_for_filedescs
                0x0000000000000000        0x8 /project/staging/core_examples/cc13xx_cc26xx_sdk/source/third_party/spiffs/lib/gcc/m4f/spiffs_cc26xx.a(spiffs_hydrogen.c.obj)
 .text.SPIFFS_buffer_bytes_for_cache
                0x0000000000000000        0xc /project/staging/core_examples/cc13xx_cc26xx_sdk/source/third_party/spiffs/lib/gcc/m4f/spiffs_cc26xx.a(spiffs_hydrogen.c.obj)
 .text.SPIFFS_mounted
                0x0000000000000000        0xc /project/staging/core_examples/cc13xx_cc26xx_sdk/source/third_party/spiffs/lib/gcc/m4f/spiffs_cc26xx.a(spiffs_hydrogen.c.obj)
 .text.SPIFFS_probe_fs
                0x0000000000000000        0x4 /project/staging/core_examples/cc13xx_cc26xx_sdk/source/third_party/spiffs/lib/gcc/m4f/spiffs_cc26xx.a(spiffs_hydrogen.c.obj)
 .text.SPIFFS_errno
                0x0000000000000000        0x4 /project/staging/core_examples/cc13xx_cc26xx_sdk/source/third_party/spiffs/lib/gcc/m4f/spiffs_cc26xx.a(spiffs_hydrogen.c.obj)
 .text.SPIFFS_clearerr
                0x0000000000000000        0x8 /project/staging/core_examples/cc13xx_cc26xx_sdk/source/third_party/spiffs/lib/gcc/m4f/spiffs_cc26xx.a(spiffs_hydrogen.c.obj)
 .text.SPIFFS_creat
                0x0000000000000000       0x90 /project/staging/core_examples/cc13xx_cc26xx_sdk/source/third_party/spiffs/lib/gcc/m4f/spiffs_cc26xx.a(spiffs_hydrogen.c.obj)
 .text.SPIFFS_open_by_dirent
                0x0000000000000000       0xa4 /project/staging/core_examples/cc13xx_cc26xx_sdk/source/third_party/spiffs/lib/gcc/m4f/spiffs_cc26xx.a(spiffs_hydrogen.c.obj)
 .text.SPIFFS_open_by_page
                0x0000000000000000      0x14c /project/staging/core_examples/cc13xx_cc26xx_sdk/source/third_party/spiffs/lib/gcc/m4f/spiffs_cc26xx.a(spiffs_hydrogen.c.obj)
 .text.SPIFFS_remove
                0x0000000000000000       0xdc /project/staging/core_examples/cc13xx_cc26xx_sdk/source/third_party/spiffs/lib/gcc/m4f/spiffs_cc26xx.a(spiffs_hydrogen.c.obj)
 .text.SPIFFS_stat
                0x0000000000000000       0x84 /project/staging/core_examples/cc13xx_cc26xx_sdk/source/third_party/spiffs/lib/gcc/m4f/spiffs_cc26xx.a(spiffs_hydrogen.c.obj)
 .text.SPIFFS_fstat
                0x0000000000000000       0x74 /project/staging/core_examples/cc13xx_cc26xx_sdk/source/third_party/spiffs/lib/gcc/m4f/spiffs_cc26xx.a(spiffs_hydrogen.c.obj)
 .text.SPIFFS_fflush
                0x0000000000000000       0xf4 /project/staging/core_examples/cc13xx_cc26xx_sdk/source/third_party/spiffs/lib/gcc/m4f/spiffs_cc26xx.a(spiffs_hydrogen.c.obj)
 .text.SPIFFS_rename
                0x0000000000000000      0x120 /project/staging/core_examples/cc13xx_cc26xx_sdk/source/third_party/spiffs/lib/gcc/m4f/spiffs_cc26xx.a(spiffs_hydrogen.c.obj)
 .text.SPIFFS_opendir
                0x0000000000000000       0x38 /project/staging/core_examples/cc13xx_cc26xx_sdk/source/third_party/spiffs/lib/gcc/m4f/spiffs_cc26xx.a(spiffs_hydrogen.c.obj)
 .text.SPIFFS_readdir
                0x0000000000000000       0x74 /project/staging/core_examples/cc13xx_cc26xx_sdk/source/third_party/spiffs/lib/gcc/m4f/spiffs_cc26xx.a(spiffs_hydrogen.c.obj)
 .text.SPIFFS_closedir
                0x0000000000000000       0x2c /project/staging/core_examples/cc13xx_cc26xx_sdk/source/third_party/spiffs/lib/gcc/m4f/spiffs_cc26xx.a(spiffs_hydrogen.c.obj)
 .text.SPIFFS_check
                0x0000000000000000       0x5c /project/staging/core_examples/cc13xx_cc26xx_sdk/source/third_party/spiffs/lib/gcc/m4f/spiffs_cc26xx.a(spiffs_hydrogen.c.obj)
 .text.SPIFFS_info
                0x0000000000000000       0x74 /project/staging/core_examples/cc13xx_cc26xx_sdk/source/third_party/spiffs/lib/gcc/m4f/spiffs_cc26xx.a(spiffs_hydrogen.c.obj)
 .text.SPIFFS_gc_quick
                0x0000000000000000       0x54 /project/staging/core_examples/cc13xx_cc26xx_sdk/source/third_party/spiffs/lib/gcc/m4f/spiffs_cc26xx.a(spiffs_hydrogen.c.obj)
 .text.SPIFFS_gc
                0x0000000000000000       0x54 /project/staging/core_examples/cc13xx_cc26xx_sdk/source/third_party/spiffs/lib/gcc/m4f/spiffs_cc26xx.a(spiffs_hydrogen.c.obj)
 .text.SPIFFS_tell
                0x0000000000000000       0x6c /project/staging/core_examples/cc13xx_cc26xx_sdk/source/third_party/spiffs/lib/gcc/m4f/spiffs_cc26xx.a(spiffs_hydrogen.c.obj)
 .text.SPIFFS_set_file_callback_func
                0x0000000000000000       0x18 /project/staging/core_examples/cc13xx_cc26xx_sdk/source/third_party/spiffs/lib/gcc/m4f/spiffs_cc26xx.a(spiffs_hydrogen.c.obj)
 .text.SPIFFS_ix_map
                0x0000000000000000       0xc4 /project/staging/core_examples/cc13xx_cc26xx_sdk/source/third_party/spiffs/lib/gcc/m4f/spiffs_cc26xx.a(spiffs_hydrogen.c.obj)
 .text.SPIFFS_ix_unmap
                0x0000000000000000       0x6c /project/staging/core_examples/cc13xx_cc26xx_sdk/source/third_party/spiffs/lib/gcc/m4f/spiffs_cc26xx.a(spiffs_hydrogen.c.obj)
 .text.SPIFFS_ix_remap
                0x0000000000000000      0x178 /project/staging/core_examples/cc13xx_cc26xx_sdk/source/third_party/spiffs/lib/gcc/m4f/spiffs_cc26xx.a(spiffs_hydrogen.c.obj)
 .text.SPIFFS_bytes_to_ix_map_entries
                0x0000000000000000       0x28 /project/staging/core_examples/cc13xx_cc26xx_sdk/source/third_party/spiffs/lib/gcc/m4f/spiffs_cc26xx.a(spiffs_hydrogen.c.obj)
 .text.SPIFFS_ix_map_entries_to_bytes
                0x0000000000000000       0x24 /project/staging/core_examples/cc13xx_cc26xx_sdk/source/third_party/spiffs/lib/gcc/m4f/spiffs_cc26xx.a(spiffs_hydrogen.c.obj)
 .text          0x0000000000000000        0x0 /project/staging/core_examples/cc13xx_cc26xx_sdk/source/third_party/spiffs/lib/gcc/m4f/spiffs_cc26xx.a(spiffs_nucleus.c.obj)
 .data          0x0000000000000000        0x0 /project/staging/core_examples/cc13xx_cc26xx_sdk/source/third_party/spiffs/lib/gcc/m4f/spiffs_cc26xx.a(spiffs_nucleus.c.obj)
 .bss           0x0000000000000000        0x0 /project/staging/core_examples/cc13xx_cc26xx_sdk/source/third_party/spiffs/lib/gcc/m4f/spiffs_cc26xx.a(spiffs_nucleus.c.obj)
 .text.spiffs_obj_lu_find_id_and_span_v
                0x0000000000000000       0x94 /project/staging/core_examples/cc13xx_cc26xx_sdk/source/third_party/spiffs/lib/gcc/m4f/spiffs_cc26xx.a(spiffs_nucleus.c.obj)
 .text.spiffs_object_find_object_index_header_by_name_v
                0x0000000000000000       0x7c /project/staging/core_examples/cc13xx_cc26xx_sdk/source/third_party/spiffs/lib/gcc/m4f/spiffs_cc26xx.a(spiffs_nucleus.c.obj)
 .text.spiffs_obj_lu_scan_v
                0x0000000000000000       0x30 /project/staging/core_examples/cc13xx_cc26xx_sdk/source/third_party/spiffs/lib/gcc/m4f/spiffs_cc26xx.a(spiffs_nucleus.c.obj)
 .text.spiffs_populate_ix_map_v
                0x0000000000000000      0x10c /project/staging/core_examples/cc13xx_cc26xx_sdk/source/third_party/spiffs/lib/gcc/m4f/spiffs_cc26xx.a(spiffs_nucleus.c.obj)
 .text.spiffs_obj_lu_find_free_obj_id_compact_v
                0x0000000000000000       0xac /project/staging/core_examples/cc13xx_cc26xx_sdk/source/third_party/spiffs/lib/gcc/m4f/spiffs_cc26xx.a(spiffs_nucleus.c.obj)
 .text.spiffs_phys_cpy
                0x0000000000000000       0x68 /project/staging/core_examples/cc13xx_cc26xx_sdk/source/third_party/spiffs/lib/gcc/m4f/spiffs_cc26xx.a(spiffs_nucleus.c.obj)
 .text.spiffs_obj_lu_find_entry_visitor
                0x0000000000000000      0x24c /project/staging/core_examples/cc13xx_cc26xx_sdk/source/third_party/spiffs/lib/gcc/m4f/spiffs_cc26xx.a(spiffs_nucleus.c.obj)
 .text.spiffs_probe
                0x0000000000000000      0x144 /project/staging/core_examples/cc13xx_cc26xx_sdk/source/third_party/spiffs/lib/gcc/m4f/spiffs_cc26xx.a(spiffs_nucleus.c.obj)
 .text.spiffs_obj_lu_find_id
                0x0000000000000000       0x30 /project/staging/core_examples/cc13xx_cc26xx_sdk/source/third_party/spiffs/lib/gcc/m4f/spiffs_cc26xx.a(spiffs_nucleus.c.obj)
 .text.spiffs_obj_lu_find_id_and_span_by_phdr
                0x0000000000000000      0x24c /project/staging/core_examples/cc13xx_cc26xx_sdk/source/third_party/spiffs/lib/gcc/m4f/spiffs_cc26xx.a(spiffs_nucleus.c.obj)
 .text.spiffs_populate_ix_map
                0x0000000000000000      0x390 /project/staging/core_examples/cc13xx_cc26xx_sdk/source/third_party/spiffs/lib/gcc/m4f/spiffs_cc26xx.a(spiffs_nucleus.c.obj)
 .text.spiffs_object_open_by_id
                0x0000000000000000      0x340 /project/staging/core_examples/cc13xx_cc26xx_sdk/source/third_party/spiffs/lib/gcc/m4f/spiffs_cc26xx.a(spiffs_nucleus.c.obj)
 .text.spiffs_fd_temporal_cache_rehash
                0x0000000000000000       0x74 /project/staging/core_examples/cc13xx_cc26xx_sdk/source/third_party/spiffs/lib/gcc/m4f/spiffs_cc26xx.a(spiffs_nucleus.c.obj)
 .text          0x0000000000000000        0x0 /project/staging/core_examples/cc13xx_cc26xx_sdk/source/third_party/spiffs/lib/gcc/m4f/spiffs_cc26xx.a(SPIFFSNVS.c.obj)
 .data          0x0000000000000000        0x0 /project/staging/core_examples/cc13xx_cc26xx_sdk/source/third_party/spiffs/lib/gcc/m4f/spiffs_cc26xx.a(SPIFFSNVS.c.obj)
 .bss           0x0000000000000000        0x0 /project/staging/core_examples/cc13xx_cc26xx_sdk/source/third_party/spiffs/lib/gcc/m4f/spiffs_cc26xx.a(SPIFFSNVS.c.obj)
 .text          0x0000000000000000        0x0 /project/staging/core_examples/cc13xx_cc26xx_sdk/source/third_party/spiffs/lib/gcc/m4f/spiffs_cc26xx.a(spiffs_cache.c.obj)
 .data          0x0000000000000000        0x0 /project/staging/core_examples/cc13xx_cc26xx_sdk/source/third_party/spiffs/lib/gcc/m4f/spiffs_cc26xx.a(spiffs_cache.c.obj)
 .bss           0x0000000000000000        0x0 /project/staging/core_examples/cc13xx_cc26xx_sdk/source/third_party/spiffs/lib/gcc/m4f/spiffs_cc26xx.a(spiffs_cache.c.obj)
 .text          0x0000000000000000        0x0 /project/staging/core_examples/cc13xx_cc26xx_sdk/source/third_party/spiffs/lib/gcc/m4f/spiffs_cc26xx.a(spiffs_check.c.obj)
 .data          0x0000000000000000        0x0 /project/staging/core_examples/cc13xx_cc26xx_sdk/source/third_party/spiffs/lib/gcc/m4f/spiffs_cc26xx.a(spiffs_check.c.obj)
 .bss           0x0000000000000000        0x0 /project/staging/core_examples/cc13xx_cc26xx_sdk/source/third_party/spiffs/lib/gcc/m4f/spiffs_cc26xx.a(spiffs_check.c.obj)
 .text.spiffs_object_get_data_page_index_reference
                0x0000000000000000       0xc0 /project/staging/core_examples/cc13xx_cc26xx_sdk/source/third_party/spiffs/lib/gcc/m4f/spiffs_cc26xx.a(spiffs_check.c.obj)
 .text.spiffs_object_index_consistency_check_v
                0x0000000000000000      0x1ec /project/staging/core_examples/cc13xx_cc26xx_sdk/source/third_party/spiffs/lib/gcc/m4f/spiffs_cc26xx.a(spiffs_check.c.obj)
 .text.spiffs_delete_obj_lazy
                0x0000000000000000       0x80 /project/staging/core_examples/cc13xx_cc26xx_sdk/source/third_party/spiffs/lib/gcc/m4f/spiffs_cc26xx.a(spiffs_check.c.obj)
 .text.spiffs_rewrite_index
                0x0000000000000000      0x1b4 /project/staging/core_examples/cc13xx_cc26xx_sdk/source/third_party/spiffs/lib/gcc/m4f/spiffs_cc26xx.a(spiffs_check.c.obj)
 .text.spiffs_rewrite_page
                0x0000000000000000       0x44 /project/staging/core_examples/cc13xx_cc26xx_sdk/source/third_party/spiffs/lib/gcc/m4f/spiffs_cc26xx.a(spiffs_check.c.obj)
 .text.spiffs_lookup_check_v
                0x0000000000000000      0x6fc /project/staging/core_examples/cc13xx_cc26xx_sdk/source/third_party/spiffs/lib/gcc/m4f/spiffs_cc26xx.a(spiffs_check.c.obj)
 .text.spiffs_lookup_consistency_check
                0x0000000000000000       0x74 /project/staging/core_examples/cc13xx_cc26xx_sdk/source/third_party/spiffs/lib/gcc/m4f/spiffs_cc26xx.a(spiffs_check.c.obj)
 .text.spiffs_page_consistency_check
                0x0000000000000000      0x804 /project/staging/core_examples/cc13xx_cc26xx_sdk/source/third_party/spiffs/lib/gcc/m4f/spiffs_cc26xx.a(spiffs_check.c.obj)
 .text.spiffs_object_index_consistency_check
                0x0000000000000000       0x84 /project/staging/core_examples/cc13xx_cc26xx_sdk/source/third_party/spiffs/lib/gcc/m4f/spiffs_cc26xx.a(spiffs_check.c.obj)
 .debug_info    0x0000000000000000     0x2e27 /project/staging/core_examples/cc13xx_cc26xx_sdk/source/third_party/spiffs/lib/gcc/m4f/spiffs_cc26xx.a(spiffs_check.c.obj)
 .debug_abbrev  0x0000000000000000      0x4f0 /project/staging/core_examples/cc13xx_cc26xx_sdk/source/third_party/spiffs/lib/gcc/m4f/spiffs_cc26xx.a(spiffs_check.c.obj)
 .debug_loc     0x0000000000000000     0x1ef3 /project/staging/core_examples/cc13xx_cc26xx_sdk/source/third_party/spiffs/lib/gcc/m4f/spiffs_cc26xx.a(spiffs_check.c.obj)
 .debug_aranges
                0x0000000000000000       0x60 /project/staging/core_examples/cc13xx_cc26xx_sdk/source/third_party/spiffs/lib/gcc/m4f/spiffs_cc26xx.a(spiffs_check.c.obj)
 .debug_ranges  0x0000000000000000      0x490 /project/staging/core_examples/cc13xx_cc26xx_sdk/source/third_party/spiffs/lib/gcc/m4f/spiffs_cc26xx.a(spiffs_check.c.obj)
 .debug_line    0x0000000000000000     0x1a5a /project/staging/core_examples/cc13xx_cc26xx_sdk/source/third_party/spiffs/lib/gcc/m4f/spiffs_cc26xx.a(spiffs_check.c.obj)
 .debug_str     0x0000000000000000      0xf5b /project/staging/core_examples/cc13xx_cc26xx_sdk/source/third_party/spiffs/lib/gcc/m4f/spiffs_cc26xx.a(spiffs_check.c.obj)
 .comment       0x0000000000000000       0x7a /project/staging/core_examples/cc13xx_cc26xx_sdk/source/third_party/spiffs/lib/gcc/m4f/spiffs_cc26xx.a(spiffs_check.c.obj)
 .debug_frame   0x0000000000000000      0x1a0 /project/staging/core_examples/cc13xx_cc26xx_sdk/source/third_party/spiffs/lib/gcc/m4f/spiffs_cc26xx.a(spiffs_check.c.obj)
 .ARM.attributes
                0x0000000000000000       0x34 /project/staging/core_examples/cc13xx_cc26xx_sdk/source/third_party/spiffs/lib/gcc/m4f/spiffs_cc26xx.a(spiffs_check.c.obj)
 .text          0x0000000000000000        0x0 /project/staging/core_examples/cc13xx_cc26xx_sdk/source/third_party/spiffs/lib/gcc/m4f/spiffs_cc26xx.a(spiffs_gc.c.obj)
 .data          0x0000000000000000        0x0 /project/staging/core_examples/cc13xx_cc26xx_sdk/source/third_party/spiffs/lib/gcc/m4f/spiffs_cc26xx.a(spiffs_gc.c.obj)
 .bss           0x0000000000000000        0x0 /project/staging/core_examples/cc13xx_cc26xx_sdk/source/third_party/spiffs/lib/gcc/m4f/spiffs_cc26xx.a(spiffs_gc.c.obj)
 .text          0x0000000000000000        0x0 /project/staging/core_examples/cc13xx_cc26xx_sdk/source/ti/display/lib/gcc/m4f/display_cc26x2x7.a(Display.c.obj)
 .data          0x0000000000000000        0x0 /project/staging/core_examples/cc13xx_cc26xx_sdk/source/ti/display/lib/gcc/m4f/display_cc26x2x7.a(Display.c.obj)
 .bss           0x0000000000000000        0x0 /project/staging/core_examples/cc13xx_cc26xx_sdk/source/ti/display/lib/gcc/m4f/display_cc26x2x7.a(Display.c.obj)
 .text.Display_doParamsInit
                0x0000000000000000        0x8 /project/staging/core_examples/cc13xx_cc26xx_sdk/source/ti/display/lib/gcc/m4f/display_cc26x2x7.a(Display.c.obj)
 .text.Display_doClear
                0x0000000000000000        0xc /project/staging/core_examples/cc13xx_cc26xx_sdk/source/ti/display/lib/gcc/m4f/display_cc26x2x7.a(Display.c.obj)
 .text.Display_doClearLines
                0x0000000000000000        0xc /project/staging/core_examples/cc13xx_cc26xx_sdk/source/ti/display/lib/gcc/m4f/display_cc26x2x7.a(Display.c.obj)
 .text.Display_doVprintf
                0x0000000000000000       0x14 /project/staging/core_examples/cc13xx_cc26xx_sdk/source/ti/display/lib/gcc/m4f/display_cc26x2x7.a(Display.c.obj)
 .text.Display_doControl
                0x0000000000000000       0x10 /project/staging/core_examples/cc13xx_cc26xx_sdk/source/ti/display/lib/gcc/m4f/display_cc26x2x7.a(Display.c.obj)
 .text.Display_doClose
                0x0000000000000000        0xc /project/staging/core_examples/cc13xx_cc26xx_sdk/source/ti/display/lib/gcc/m4f/display_cc26x2x7.a(Display.c.obj)
 .text.Display_doGetType
                0x0000000000000000        0xc /project/staging/core_examples/cc13xx_cc26xx_sdk/source/ti/display/lib/gcc/m4f/display_cc26x2x7.a(Display.c.obj)
 .text          0x0000000000000000        0x0 /project/staging/core_examples/cc13xx_cc26xx_sdk/source/ti/display/lib/gcc/m4f/display_cc26x2x7.a(DisplayUart2.c.obj)
 .data          0x0000000000000000        0x0 /project/staging/core_examples/cc13xx_cc26xx_sdk/source/ti/display/lib/gcc/m4f/display_cc26x2x7.a(DisplayUart2.c.obj)
 .bss           0x0000000000000000        0x0 /project/staging/core_examples/cc13xx_cc26xx_sdk/source/ti/display/lib/gcc/m4f/display_cc26x2x7.a(DisplayUart2.c.obj)
 .text.DisplayUart2Ansi_getType
                0x0000000000000000        0x8 /project/staging/core_examples/cc13xx_cc26xx_sdk/source/ti/display/lib/gcc/m4f/display_cc26x2x7.a(DisplayUart2.c.obj)
 .rodata.DisplayUart2Ansi_open.str1.4
                0x0000000000000000       0x15 /project/staging/core_examples/cc13xx_cc26xx_sdk/source/ti/display/lib/gcc/m4f/display_cc26x2x7.a(DisplayUart2.c.obj)
 .text.DisplayUart2Ansi_open
                0x0000000000000000       0x84 /project/staging/core_examples/cc13xx_cc26xx_sdk/source/ti/display/lib/gcc/m4f/display_cc26x2x7.a(DisplayUart2.c.obj)
 .text.DisplayUart2Ansi_clear
                0x0000000000000000       0x2c /project/staging/core_examples/cc13xx_cc26xx_sdk/source/ti/display/lib/gcc/m4f/display_cc26x2x7.a(DisplayUart2.c.obj)
 .rodata.DisplayUart2Ansi_clearLines.str1.4
                0x0000000000000000       0x1b /project/staging/core_examples/cc13xx_cc26xx_sdk/source/ti/display/lib/gcc/m4f/display_cc26x2x7.a(DisplayUart2.c.obj)
 .text.DisplayUart2Ansi_clearLines
                0x0000000000000000       0xb0 /project/staging/core_examples/cc13xx_cc26xx_sdk/source/ti/display/lib/gcc/m4f/display_cc26x2x7.a(DisplayUart2.c.obj)
 .text.DisplayUart2Ansi_vprintf
                0x0000000000000000       0xa4 /project/staging/core_examples/cc13xx_cc26xx_sdk/source/ti/display/lib/gcc/m4f/display_cc26x2x7.a(DisplayUart2.c.obj)
 .text.DisplayUart2Ansi_control
                0x0000000000000000        0x8 /project/staging/core_examples/cc13xx_cc26xx_sdk/source/ti/display/lib/gcc/m4f/display_cc26x2x7.a(DisplayUart2.c.obj)
 .text.DisplayUart2Ansi_init
                0x0000000000000000        0x4 /project/staging/core_examples/cc13xx_cc26xx_sdk/source/ti/display/lib/gcc/m4f/display_cc26x2x7.a(DisplayUart2.c.obj)
 .text.DisplayUart2Ansi_close
                0x0000000000000000       0x18 /project/staging/core_examples/cc13xx_cc26xx_sdk/source/ti/display/lib/gcc/m4f/display_cc26x2x7.a(DisplayUart2.c.obj)
 .data.DisplayUart2Ansi_escClearScreen
                0x0000000000000000        0x5 /project/staging/core_examples/cc13xx_cc26xx_sdk/source/ti/display/lib/gcc/m4f/display_cc26x2x7.a(DisplayUart2.c.obj)
 .data.DisplayUart2Ansi_escInitial
                0x0000000000000000       0x13 /project/staging/core_examples/cc13xx_cc26xx_sdk/source/ti/display/lib/gcc/m4f/display_cc26x2x7.a(DisplayUart2.c.obj)
 .rodata.DisplayUart2Ansi_fxnTable
                0x0000000000000000       0x20 /project/staging/core_examples/cc13xx_cc26xx_sdk/source/ti/display/lib/gcc/m4f/display_cc26x2x7.a(DisplayUart2.c.obj)
 .text          0x0000000000000000        0x0 /project/staging/core_examples/cc13xx_cc26xx_sdk/source/ti/drivers/lib/gcc/m4f/drivers_cc26x2x7.a(GPIO.c.obj)
 .data          0x0000000000000000        0x0 /project/staging/core_examples/cc13xx_cc26xx_sdk/source/ti/drivers/lib/gcc/m4f/drivers_cc26x2x7.a(GPIO.c.obj)
 .bss           0x0000000000000000        0x0 /project/staging/core_examples/cc13xx_cc26xx_sdk/source/ti/drivers/lib/gcc/m4f/drivers_cc26x2x7.a(GPIO.c.obj)
 .text.GPIO_getCallback
                0x0000000000000000       0x10 /project/staging/core_examples/cc13xx_cc26xx_sdk/source/ti/drivers/lib/gcc/m4f/drivers_cc26x2x7.a(GPIO.c.obj)
 .text          0x0000000000000000        0x0 /project/staging/core_examples/cc13xx_cc26xx_sdk/source/ti/drivers/lib/gcc/m4f/drivers_cc26x2x7.a(GPIOCC26XX.c.obj)
 .data          0x0000000000000000        0x0 /project/staging/core_examples/cc13xx_cc26xx_sdk/source/ti/drivers/lib/gcc/m4f/drivers_cc26x2x7.a(GPIOCC26XX.c.obj)
 .bss           0x0000000000000000        0x0 /project/staging/core_examples/cc13xx_cc26xx_sdk/source/ti/drivers/lib/gcc/m4f/drivers_cc26x2x7.a(GPIOCC26XX.c.obj)
 .text.GPIO_clearInt
                0x0000000000000000       0x14 /project/staging/core_examples/cc13xx_cc26xx_sdk/source/ti/drivers/lib/gcc/m4f/drivers_cc26x2x7.a(GPIOCC26XX.c.obj)
 .text.GPIO_enableInt
                0x0000000000000000       0x18 /project/staging/core_examples/cc13xx_cc26xx_sdk/source/ti/drivers/lib/gcc/m4f/drivers_cc26x2x7.a(GPIOCC26XX.c.obj)
 .text.GPIO_getConfig
                0x0000000000000000       0x58 /project/staging/core_examples/cc13xx_cc26xx_sdk/source/ti/drivers/lib/gcc/m4f/drivers_cc26x2x7.a(GPIOCC26XX.c.obj)
 .text.GPIO_getMux
                0x0000000000000000       0x10 /project/staging/core_examples/cc13xx_cc26xx_sdk/source/ti/drivers/lib/gcc/m4f/drivers_cc26x2x7.a(GPIOCC26XX.c.obj)
 .text.GPIO_toggle
                0x0000000000000000       0x14 /project/staging/core_examples/cc13xx_cc26xx_sdk/source/ti/drivers/lib/gcc/m4f/drivers_cc26x2x7.a(GPIOCC26XX.c.obj)
 .text          0x0000000000000000        0x0 /project/staging/core_examples/cc13xx_cc26xx_sdk/source/ti/drivers/lib/gcc/m4f/drivers_cc26x2x7.a(NVS.c.obj)
 .data          0x0000000000000000        0x0 /project/staging/core_examples/cc13xx_cc26xx_sdk/source/ti/drivers/lib/gcc/m4f/drivers_cc26x2x7.a(NVS.c.obj)
 .bss           0x0000000000000000        0x0 /project/staging/core_examples/cc13xx_cc26xx_sdk/source/ti/drivers/lib/gcc/m4f/drivers_cc26x2x7.a(NVS.c.obj)
 .text.NVS_control
                0x0000000000000000        0x8 /project/staging/core_examples/cc13xx_cc26xx_sdk/source/ti/drivers/lib/gcc/m4f/drivers_cc26x2x7.a(NVS.c.obj)
 .text.NVS_lock
                0x0000000000000000        0x8 /project/staging/core_examples/cc13xx_cc26xx_sdk/source/ti/drivers/lib/gcc/m4f/drivers_cc26x2x7.a(NVS.c.obj)
 .text.NVS_Params_init
                0x0000000000000000        0x8 /project/staging/core_examples/cc13xx_cc26xx_sdk/source/ti/drivers/lib/gcc/m4f/drivers_cc26x2x7.a(NVS.c.obj)
 .text.NVS_unlock
                0x0000000000000000        0x8 /project/staging/core_examples/cc13xx_cc26xx_sdk/source/ti/drivers/lib/gcc/m4f/drivers_cc26x2x7.a(NVS.c.obj)
 .text          0x0000000000000000        0x0 /project/staging/core_examples/cc13xx_cc26xx_sdk/source/ti/drivers/lib/gcc/m4f/drivers_cc26x2x7.a(NVSSPI25X.c.obj)
 .data          0x0000000000000000        0x0 /project/staging/core_examples/cc13xx_cc26xx_sdk/source/ti/drivers/lib/gcc/m4f/drivers_cc26x2x7.a(NVSSPI25X.c.obj)
 .bss           0x0000000000000000        0x0 /project/staging/core_examples/cc13xx_cc26xx_sdk/source/ti/drivers/lib/gcc/m4f/drivers_cc26x2x7.a(NVSSPI25X.c.obj)
 .text          0x0000000000000000        0x0 /project/staging/core_examples/cc13xx_cc26xx_sdk/source/ti/drivers/lib/gcc/m4f/drivers_cc26x2x7.a(PowerCC26X2.c.obj)
 .data          0x0000000000000000        0x0 /project/staging/core_examples/cc13xx_cc26xx_sdk/source/ti/drivers/lib/gcc/m4f/drivers_cc26x2x7.a(PowerCC26X2.c.obj)
 .bss           0x0000000000000000        0x0 /project/staging/core_examples/cc13xx_cc26xx_sdk/source/ti/drivers/lib/gcc/m4f/drivers_cc26x2x7.a(PowerCC26X2.c.obj)
 .text.hposcRtcCompensateFxn
                0x0000000000000000       0x34 /project/staging/core_examples/cc13xx_cc26xx_sdk/source/ti/drivers/lib/gcc/m4f/drivers_cc26x2x7.a(PowerCC26X2.c.obj)
 .text.xosclfRtcCompensateFxn
                0x0000000000000000       0x54 /project/staging/core_examples/cc13xx_cc26xx_sdk/source/ti/drivers/lib/gcc/m4f/drivers_cc26x2x7.a(PowerCC26X2.c.obj)
 .text.Power_getConstraintCount
                0x0000000000000000       0x18 /project/staging/core_examples/cc13xx_cc26xx_sdk/source/ti/drivers/lib/gcc/m4f/drivers_cc26x2x7.a(PowerCC26X2.c.obj)
 .text.Power_getTransitionState
                0x0000000000000000        0xc /project/staging/core_examples/cc13xx_cc26xx_sdk/source/ti/drivers/lib/gcc/m4f/drivers_cc26x2x7.a(PowerCC26X2.c.obj)
 .text.Power_setPolicy
                0x0000000000000000        0xc /project/staging/core_examples/cc13xx_cc26xx_sdk/source/ti/drivers/lib/gcc/m4f/drivers_cc26x2x7.a(PowerCC26X2.c.obj)
 .text.Power_shutdown
                0x0000000000000000       0x84 /project/staging/core_examples/cc13xx_cc26xx_sdk/source/ti/drivers/lib/gcc/m4f/drivers_cc26x2x7.a(PowerCC26X2.c.obj)
 .text.Power_reset
                0x0000000000000000        0x4 /project/staging/core_examples/cc13xx_cc26xx_sdk/source/ti/drivers/lib/gcc/m4f/drivers_cc26x2x7.a(PowerCC26X2.c.obj)
 .text.PowerCC26X2_enableHposcRtcCompensation
                0x0000000000000000       0x4c /project/staging/core_examples/cc13xx_cc26xx_sdk/source/ti/drivers/lib/gcc/m4f/drivers_cc26x2x7.a(PowerCC26X2.c.obj)
 .text.PowerCC26X2_enableXoscLfRtcCompensation
                0x0000000000000000       0x78 /project/staging/core_examples/cc13xx_cc26xx_sdk/source/ti/drivers/lib/gcc/m4f/drivers_cc26x2x7.a(PowerCC26X2.c.obj)
 .text.PowerCC26XX_doWFI
                0x0000000000000000        0x4 /project/staging/core_examples/cc13xx_cc26xx_sdk/source/ti/drivers/lib/gcc/m4f/drivers_cc26x2x7.a(PowerCC26X2.c.obj)
 .text.PowerCC26XX_getClockHandle
                0x0000000000000000        0x8 /project/staging/core_examples/cc13xx_cc26xx_sdk/source/ti/drivers/lib/gcc/m4f/drivers_cc26x2x7.a(PowerCC26X2.c.obj)
 .text.PowerCC26XX_noCalibrate
                0x0000000000000000        0x4 /project/staging/core_examples/cc13xx_cc26xx_sdk/source/ti/drivers/lib/gcc/m4f/drivers_cc26x2x7.a(PowerCC26X2.c.obj)
 .text.PowerCC26XX_getXoscStartupTime
                0x0000000000000000        0x4 /project/staging/core_examples/cc13xx_cc26xx_sdk/source/ti/drivers/lib/gcc/m4f/drivers_cc26x2x7.a(PowerCC26X2.c.obj)
 .text.PowerCC26XX_injectCalibration
                0x0000000000000000       0x1c /project/staging/core_examples/cc13xx_cc26xx_sdk/source/ti/drivers/lib/gcc/m4f/drivers_cc26x2x7.a(PowerCC26X2.c.obj)
 .text.PowerCC26XX_isStableXOSC_HF
                0x0000000000000000       0x30 /project/staging/core_examples/cc13xx_cc26xx_sdk/source/ti/drivers/lib/gcc/m4f/drivers_cc26x2x7.a(PowerCC26X2.c.obj)
 .text.PowerCC26XX_switchXOSC_HF
                0x0000000000000000       0x78 /project/staging/core_examples/cc13xx_cc26xx_sdk/source/ti/drivers/lib/gcc/m4f/drivers_cc26x2x7.a(PowerCC26X2.c.obj)
 .text.PowerCC26X2_getResetReason
                0x0000000000000000        0xc /project/staging/core_examples/cc13xx_cc26xx_sdk/source/ti/drivers/lib/gcc/m4f/drivers_cc26x2x7.a(PowerCC26X2.c.obj)
 .bss.PowerCC26X2_hposcRtcCompNotifyObj
                0x0000000000000000       0x18 /project/staging/core_examples/cc13xx_cc26xx_sdk/source/ti/drivers/lib/gcc/m4f/drivers_cc26x2x7.a(PowerCC26X2.c.obj)
 .bss.PowerCC26X2_xosclfRtcCompNotifyObj
                0x0000000000000000       0x18 /project/staging/core_examples/cc13xx_cc26xx_sdk/source/ti/drivers/lib/gcc/m4f/drivers_cc26x2x7.a(PowerCC26X2.c.obj)
 .text          0x0000000000000000        0x0 /project/staging/core_examples/cc13xx_cc26xx_sdk/source/ti/drivers/lib/gcc/m4f/drivers_cc26x2x7.a(PowerCC26X2_calibrateRCOSC.c.obj)
 .data          0x0000000000000000        0x0 /project/staging/core_examples/cc13xx_cc26xx_sdk/source/ti/drivers/lib/gcc/m4f/drivers_cc26x2x7.a(PowerCC26X2_calibrateRCOSC.c.obj)
 .bss           0x0000000000000000        0x0 /project/staging/core_examples/cc13xx_cc26xx_sdk/source/ti/drivers/lib/gcc/m4f/drivers_cc26x2x7.a(PowerCC26X2_calibrateRCOSC.c.obj)
 .text          0x0000000000000000        0x0 /project/staging/core_examples/cc13xx_cc26xx_sdk/source/ti/drivers/lib/gcc/m4f/drivers_cc26x2x7.a(SPI.c.obj)
 .data          0x0000000000000000        0x0 /project/staging/core_examples/cc13xx_cc26xx_sdk/source/ti/drivers/lib/gcc/m4f/drivers_cc26x2x7.a(SPI.c.obj)
 .bss           0x0000000000000000        0x0 /project/staging/core_examples/cc13xx_cc26xx_sdk/source/ti/drivers/lib/gcc/m4f/drivers_cc26x2x7.a(SPI.c.obj)
 .text.SPI_control
                0x0000000000000000        0x8 /project/staging/core_examples/cc13xx_cc26xx_sdk/source/ti/drivers/lib/gcc/m4f/drivers_cc26x2x7.a(SPI.c.obj)
 .text.SPI_transferCancel
                0x0000000000000000        0x8 /project/staging/core_examples/cc13xx_cc26xx_sdk/source/ti/drivers/lib/gcc/m4f/drivers_cc26x2x7.a(SPI.c.obj)
 .text          0x0000000000000000        0x0 /project/staging/core_examples/cc13xx_cc26xx_sdk/source/ti/drivers/lib/gcc/m4f/drivers_cc26x2x7.a(TemperatureCC26X2.c.obj)
 .data          0x0000000000000000        0x0 /project/staging/core_examples/cc13xx_cc26xx_sdk/source/ti/drivers/lib/gcc/m4f/drivers_cc26x2x7.a(TemperatureCC26X2.c.obj)
 .bss           0x0000000000000000        0x0 /project/staging/core_examples/cc13xx_cc26xx_sdk/source/ti/drivers/lib/gcc/m4f/drivers_cc26x2x7.a(TemperatureCC26X2.c.obj)
 .text.updateThresholds
                0x0000000000000000       0xe4 /project/staging/core_examples/cc13xx_cc26xx_sdk/source/ti/drivers/lib/gcc/m4f/drivers_cc26x2x7.a(TemperatureCC26X2.c.obj)
 .text.temperatureHwiFxn
                0x0000000000000000      0x108 /project/staging/core_examples/cc13xx_cc26xx_sdk/source/ti/drivers/lib/gcc/m4f/drivers_cc26x2x7.a(TemperatureCC26X2.c.obj)
 .text.Temperature_init
                0x0000000000000000       0x9c /project/staging/core_examples/cc13xx_cc26xx_sdk/source/ti/drivers/lib/gcc/m4f/drivers_cc26x2x7.a(TemperatureCC26X2.c.obj)
 .text.Temperature_getTemperature
                0x0000000000000000       0x14 /project/staging/core_examples/cc13xx_cc26xx_sdk/source/ti/drivers/lib/gcc/m4f/drivers_cc26x2x7.a(TemperatureCC26X2.c.obj)
 .text.Temperature_registerNotifyHigh
                0x0000000000000000      0x134 /project/staging/core_examples/cc13xx_cc26xx_sdk/source/ti/drivers/lib/gcc/m4f/drivers_cc26x2x7.a(TemperatureCC26X2.c.obj)
 .text.Temperature_registerNotifyLow
                0x0000000000000000      0x148 /project/staging/core_examples/cc13xx_cc26xx_sdk/source/ti/drivers/lib/gcc/m4f/drivers_cc26x2x7.a(TemperatureCC26X2.c.obj)
 .text.Temperature_registerNotifyRange
                0x0000000000000000      0x130 /project/staging/core_examples/cc13xx_cc26xx_sdk/source/ti/drivers/lib/gcc/m4f/drivers_cc26x2x7.a(TemperatureCC26X2.c.obj)
 .text.Temperature_unregisterNotify
                0x0000000000000000       0x60 /project/staging/core_examples/cc13xx_cc26xx_sdk/source/ti/drivers/lib/gcc/m4f/drivers_cc26x2x7.a(TemperatureCC26X2.c.obj)
 .bss.batmonHwi
                0x0000000000000000       0x1c /project/staging/core_examples/cc13xx_cc26xx_sdk/source/ti/drivers/lib/gcc/m4f/drivers_cc26x2x7.a(TemperatureCC26X2.c.obj)
 .bss.isInitialized
                0x0000000000000000        0x1 /project/staging/core_examples/cc13xx_cc26xx_sdk/source/ti/drivers/lib/gcc/m4f/drivers_cc26x2x7.a(TemperatureCC26X2.c.obj)
 .bss.notificationList
                0x0000000000000000        0x8 /project/staging/core_examples/cc13xx_cc26xx_sdk/source/ti/drivers/lib/gcc/m4f/drivers_cc26x2x7.a(TemperatureCC26X2.c.obj)
 .data.currentThresholdHigh
                0x0000000000000000        0x2 /project/staging/core_examples/cc13xx_cc26xx_sdk/source/ti/drivers/lib/gcc/m4f/drivers_cc26x2x7.a(TemperatureCC26X2.c.obj)
 .data.currentThresholdLow
                0x0000000000000000        0x2 /project/staging/core_examples/cc13xx_cc26xx_sdk/source/ti/drivers/lib/gcc/m4f/drivers_cc26x2x7.a(TemperatureCC26X2.c.obj)
 .debug_info    0x0000000000000000     0x1b3a /project/staging/core_examples/cc13xx_cc26xx_sdk/source/ti/drivers/lib/gcc/m4f/drivers_cc26x2x7.a(TemperatureCC26X2.c.obj)
 .debug_abbrev  0x0000000000000000      0x497 /project/staging/core_examples/cc13xx_cc26xx_sdk/source/ti/drivers/lib/gcc/m4f/drivers_cc26x2x7.a(TemperatureCC26X2.c.obj)
 .debug_loc     0x0000000000000000     0x1b8d /project/staging/core_examples/cc13xx_cc26xx_sdk/source/ti/drivers/lib/gcc/m4f/drivers_cc26x2x7.a(TemperatureCC26X2.c.obj)
 .debug_aranges
                0x0000000000000000       0x58 /project/staging/core_examples/cc13xx_cc26xx_sdk/source/ti/drivers/lib/gcc/m4f/drivers_cc26x2x7.a(TemperatureCC26X2.c.obj)
 .debug_ranges  0x0000000000000000      0x780 /project/staging/core_examples/cc13xx_cc26xx_sdk/source/ti/drivers/lib/gcc/m4f/drivers_cc26x2x7.a(TemperatureCC26X2.c.obj)
 .debug_line    0x0000000000000000     0x14a4 /project/staging/core_examples/cc13xx_cc26xx_sdk/source/ti/drivers/lib/gcc/m4f/drivers_cc26x2x7.a(TemperatureCC26X2.c.obj)
 .debug_str     0x0000000000000000      0xbac /project/staging/core_examples/cc13xx_cc26xx_sdk/source/ti/drivers/lib/gcc/m4f/drivers_cc26x2x7.a(TemperatureCC26X2.c.obj)
 .comment       0x0000000000000000       0x7a /project/staging/core_examples/cc13xx_cc26xx_sdk/source/ti/drivers/lib/gcc/m4f/drivers_cc26x2x7.a(TemperatureCC26X2.c.obj)
 .debug_frame   0x0000000000000000      0x128 /project/staging/core_examples/cc13xx_cc26xx_sdk/source/ti/drivers/lib/gcc/m4f/drivers_cc26x2x7.a(TemperatureCC26X2.c.obj)
 .ARM.attributes
                0x0000000000000000       0x34 /project/staging/core_examples/cc13xx_cc26xx_sdk/source/ti/drivers/lib/gcc/m4f/drivers_cc26x2x7.a(TemperatureCC26X2.c.obj)
 .text          0x0000000000000000        0x0 /project/staging/core_examples/cc13xx_cc26xx_sdk/source/ti/drivers/lib/gcc/m4f/drivers_cc26x2x7.a(UART2.c.obj)
 .data          0x0000000000000000        0x0 /project/staging/core_examples/cc13xx_cc26xx_sdk/source/ti/drivers/lib/gcc/m4f/drivers_cc26x2x7.a(UART2.c.obj)
 .bss           0x0000000000000000        0x0 /project/staging/core_examples/cc13xx_cc26xx_sdk/source/ti/drivers/lib/gcc/m4f/drivers_cc26x2x7.a(UART2.c.obj)
 .text.UART2_getRxCount
                0x0000000000000000       0x3c /project/staging/core_examples/cc13xx_cc26xx_sdk/source/ti/drivers/lib/gcc/m4f/drivers_cc26x2x7.a(UART2.c.obj)
 .text.UART2_rxEnable
                0x0000000000000000       0x44 /project/staging/core_examples/cc13xx_cc26xx_sdk/source/ti/drivers/lib/gcc/m4f/drivers_cc26x2x7.a(UART2.c.obj)
 .text.UART2_readTimeout
                0x0000000000000000      0x1c4 /project/staging/core_examples/cc13xx_cc26xx_sdk/source/ti/drivers/lib/gcc/m4f/drivers_cc26x2x7.a(UART2.c.obj)
 .text.UART2_readFull
                0x0000000000000000       0x50 /project/staging/core_examples/cc13xx_cc26xx_sdk/source/ti/drivers/lib/gcc/m4f/drivers_cc26x2x7.a(UART2.c.obj)
 .text.UART2_read
                0x0000000000000000       0x24 /project/staging/core_examples/cc13xx_cc26xx_sdk/source/ti/drivers/lib/gcc/m4f/drivers_cc26x2x7.a(UART2.c.obj)
 .text          0x0000000000000000        0x0 /project/staging/core_examples/cc13xx_cc26xx_sdk/source/ti/drivers/lib/gcc/m4f/drivers_cc26x2x7.a(UART2CC26X2.c.obj)
 .data          0x0000000000000000        0x0 /project/staging/core_examples/cc13xx_cc26xx_sdk/source/ti/drivers/lib/gcc/m4f/drivers_cc26x2x7.a(UART2CC26X2.c.obj)
 .bss           0x0000000000000000        0x0 /project/staging/core_examples/cc13xx_cc26xx_sdk/source/ti/drivers/lib/gcc/m4f/drivers_cc26x2x7.a(UART2CC26X2.c.obj)
 .text.UART2_flushRx
                0x0000000000000000       0x58 /project/staging/core_examples/cc13xx_cc26xx_sdk/source/ti/drivers/lib/gcc/m4f/drivers_cc26x2x7.a(UART2CC26X2.c.obj)
 .text.UART2Support_enableInts
                0x0000000000000000       0x2c /project/staging/core_examples/cc13xx_cc26xx_sdk/source/ti/drivers/lib/gcc/m4f/drivers_cc26x2x7.a(UART2CC26X2.c.obj)
 .text.UART2Support_enableRx
                0x0000000000000000        0xc /project/staging/core_examples/cc13xx_cc26xx_sdk/source/ti/drivers/lib/gcc/m4f/drivers_cc26x2x7.a(UART2CC26X2.c.obj)
 .text.UART2Support_powerSetConstraint
                0x0000000000000000       0x28 /project/staging/core_examples/cc13xx_cc26xx_sdk/source/ti/drivers/lib/gcc/m4f/drivers_cc26x2x7.a(UART2CC26X2.c.obj)
 .text.UART2Support_rxStatus2ErrorCode
                0x0000000000000000       0x10 /project/staging/core_examples/cc13xx_cc26xx_sdk/source/ti/drivers/lib/gcc/m4f/drivers_cc26x2x7.a(UART2CC26X2.c.obj)
 .text.UART2Support_uartRxError
                0x0000000000000000       0x1c /project/staging/core_examples/cc13xx_cc26xx_sdk/source/ti/drivers/lib/gcc/m4f/drivers_cc26x2x7.a(UART2CC26X2.c.obj)
 .text          0x0000000000000000        0x0 /project/staging/core_examples/cc13xx_cc26xx_sdk/source/ti/drivers/lib/gcc/m4f/drivers_cc26x2x7.a(GPIOCC26X2.c.obj)
 .data          0x0000000000000000        0x0 /project/staging/core_examples/cc13xx_cc26xx_sdk/source/ti/drivers/lib/gcc/m4f/drivers_cc26x2x7.a(GPIOCC26X2.c.obj)
 .bss           0x0000000000000000        0x0 /project/staging/core_examples/cc13xx_cc26xx_sdk/source/ti/drivers/lib/gcc/m4f/drivers_cc26x2x7.a(GPIOCC26X2.c.obj)
 .text          0x0000000000000000        0x0 /project/staging/core_examples/cc13xx_cc26xx_sdk/source/ti/drivers/lib/gcc/m4f/drivers_cc26x2x7.a(PowerCC26X2_calibrateRCOSC_helpers.c.obj)
 .data          0x0000000000000000        0x0 /project/staging/core_examples/cc13xx_cc26xx_sdk/source/ti/drivers/lib/gcc/m4f/drivers_cc26x2x7.a(PowerCC26X2_calibrateRCOSC_helpers.c.obj)
 .bss           0x0000000000000000        0x0 /project/staging/core_examples/cc13xx_cc26xx_sdk/source/ti/drivers/lib/gcc/m4f/drivers_cc26x2x7.a(PowerCC26X2_calibrateRCOSC_helpers.c.obj)
 .text          0x0000000000000000        0x0 /project/staging/core_examples/cc13xx_cc26xx_sdk/source/ti/drivers/lib/gcc/m4f/drivers_cc26x2x7.a(PowerCC26X2_helpers.c.obj)
 .data          0x0000000000000000        0x0 /project/staging/core_examples/cc13xx_cc26xx_sdk/source/ti/drivers/lib/gcc/m4f/drivers_cc26x2x7.a(PowerCC26X2_helpers.c.obj)
 .bss           0x0000000000000000        0x0 /project/staging/core_examples/cc13xx_cc26xx_sdk/source/ti/drivers/lib/gcc/m4f/drivers_cc26x2x7.a(PowerCC26X2_helpers.c.obj)
 .text.PowerCC26X2_pmctlDisableJtag
                0x0000000000000000        0xc /project/staging/core_examples/cc13xx_cc26xx_sdk/source/ti/drivers/lib/gcc/m4f/drivers_cc26x2x7.a(PowerCC26X2_helpers.c.obj)
 .text.PowerCC26X2_sysctrlShutdownWithAbort
                0x0000000000000000        0x4 /project/staging/core_examples/cc13xx_cc26xx_sdk/source/ti/drivers/lib/gcc/m4f/drivers_cc26x2x7.a(PowerCC26X2_helpers.c.obj)
 .text.PowerCC26X2_getOscHfSourceReady
                0x0000000000000000       0x24 /project/staging/core_examples/cc13xx_cc26xx_sdk/source/ti/drivers/lib/gcc/m4f/drivers_cc26x2x7.a(PowerCC26X2_helpers.c.obj)
 .text.PowerCC26X2_oscIsHPOSCEnabledWithHfDerivedLfClock
                0x0000000000000000       0x1c /project/staging/core_examples/cc13xx_cc26xx_sdk/source/ti/drivers/lib/gcc/m4f/drivers_cc26x2x7.a(PowerCC26X2_helpers.c.obj)
 .text.PowerCC26X2_sysCtrlVoltageConditionalControl
                0x0000000000000000        0xc /project/staging/core_examples/cc13xx_cc26xx_sdk/source/ti/drivers/lib/gcc/m4f/drivers_cc26x2x7.a(PowerCC26X2_helpers.c.obj)
 .text.PowerCC26X2_setPeriphDependency
                0x0000000000000000       0x38 /project/staging/core_examples/cc13xx_cc26xx_sdk/source/ti/drivers/lib/gcc/m4f/drivers_cc26x2x7.a(PowerCC26X2_helpers.c.obj)
 .text.PowerCC26X2_releasePeriphDependency
                0x0000000000000000       0x38 /project/staging/core_examples/cc13xx_cc26xx_sdk/source/ti/drivers/lib/gcc/m4f/drivers_cc26x2x7.a(PowerCC26X2_helpers.c.obj)
 .text.PowerCC26X2_sysCtrlReset
                0x0000000000000000       0x14 /project/staging/core_examples/cc13xx_cc26xx_sdk/source/ti/drivers/lib/gcc/m4f/drivers_cc26x2x7.a(PowerCC26X2_helpers.c.obj)
 .text          0x0000000000000000        0x0 /project/staging/core_examples/cc13xx_cc26xx_sdk/source/ti/drivers/lib/gcc/m4f/drivers_cc26x2x7.a(SPICC26X2DMA.c.obj)
 .data          0x0000000000000000        0x0 /project/staging/core_examples/cc13xx_cc26xx_sdk/source/ti/drivers/lib/gcc/m4f/drivers_cc26x2x7.a(SPICC26X2DMA.c.obj)
 .bss           0x0000000000000000        0x0 /project/staging/core_examples/cc13xx_cc26xx_sdk/source/ti/drivers/lib/gcc/m4f/drivers_cc26x2x7.a(SPICC26X2DMA.c.obj)
 .text          0x0000000000000000        0x0 /project/staging/core_examples/cc13xx_cc26xx_sdk/source/ti/drivers/lib/gcc/m4f/drivers_cc26x2x7.a(List.c.obj)
 .data          0x0000000000000000        0x0 /project/staging/core_examples/cc13xx_cc26xx_sdk/source/ti/drivers/lib/gcc/m4f/drivers_cc26x2x7.a(List.c.obj)
 .bss           0x0000000000000000        0x0 /project/staging/core_examples/cc13xx_cc26xx_sdk/source/ti/drivers/lib/gcc/m4f/drivers_cc26x2x7.a(List.c.obj)
 .text.List_clearList
                0x0000000000000000       0x18 /project/staging/core_examples/cc13xx_cc26xx_sdk/source/ti/drivers/lib/gcc/m4f/drivers_cc26x2x7.a(List.c.obj)
 .text.List_get
                0x0000000000000000       0x28 /project/staging/core_examples/cc13xx_cc26xx_sdk/source/ti/drivers/lib/gcc/m4f/drivers_cc26x2x7.a(List.c.obj)
 .text.List_insert
                0x0000000000000000       0x30 /project/staging/core_examples/cc13xx_cc26xx_sdk/source/ti/drivers/lib/gcc/m4f/drivers_cc26x2x7.a(List.c.obj)
 .text.List_putHead
                0x0000000000000000       0x2c /project/staging/core_examples/cc13xx_cc26xx_sdk/source/ti/drivers/lib/gcc/m4f/drivers_cc26x2x7.a(List.c.obj)
 .text          0x0000000000000000        0x0 /project/staging/core_examples/cc13xx_cc26xx_sdk/source/ti/drivers/lib/gcc/m4f/drivers_cc26x2x7.a(RingBuf.c.obj)
 .data          0x0000000000000000        0x0 /project/staging/core_examples/cc13xx_cc26xx_sdk/source/ti/drivers/lib/gcc/m4f/drivers_cc26x2x7.a(RingBuf.c.obj)
 .bss           0x0000000000000000        0x0 /project/staging/core_examples/cc13xx_cc26xx_sdk/source/ti/drivers/lib/gcc/m4f/drivers_cc26x2x7.a(RingBuf.c.obj)
 .text.RingBuf_get
                0x0000000000000000       0x40 /project/staging/core_examples/cc13xx_cc26xx_sdk/source/ti/drivers/lib/gcc/m4f/drivers_cc26x2x7.a(RingBuf.c.obj)
 .text.RingBuf_getMaxCount
                0x0000000000000000        0x4 /project/staging/core_examples/cc13xx_cc26xx_sdk/source/ti/drivers/lib/gcc/m4f/drivers_cc26x2x7.a(RingBuf.c.obj)
 .text.RingBuf_getn
                0x0000000000000000       0x50 /project/staging/core_examples/cc13xx_cc26xx_sdk/source/ti/drivers/lib/gcc/m4f/drivers_cc26x2x7.a(RingBuf.c.obj)
 .text.RingBuf_isFull
                0x0000000000000000       0x10 /project/staging/core_examples/cc13xx_cc26xx_sdk/source/ti/drivers/lib/gcc/m4f/drivers_cc26x2x7.a(RingBuf.c.obj)
 .text.RingBuf_peek
                0x0000000000000000       0x1c /project/staging/core_examples/cc13xx_cc26xx_sdk/source/ti/drivers/lib/gcc/m4f/drivers_cc26x2x7.a(RingBuf.c.obj)
 .text.RingBuf_putn
                0x0000000000000000       0x7c /project/staging/core_examples/cc13xx_cc26xx_sdk/source/ti/drivers/lib/gcc/m4f/drivers_cc26x2x7.a(RingBuf.c.obj)
 .text          0x0000000000000000        0x0 /project/staging/core_examples/cc13xx_cc26xx_sdk/source/ti/drivers/lib/gcc/m4f/drivers_cc26x2x7.a(UDMACC26XX.c.obj)
 .data          0x0000000000000000        0x0 /project/staging/core_examples/cc13xx_cc26xx_sdk/source/ti/drivers/lib/gcc/m4f/drivers_cc26x2x7.a(UDMACC26XX.c.obj)
 .bss           0x0000000000000000        0x0 /project/staging/core_examples/cc13xx_cc26xx_sdk/source/ti/drivers/lib/gcc/m4f/drivers_cc26x2x7.a(UDMACC26XX.c.obj)
 .text          0x0000000000000000        0x0 /project/staging/core_examples/cc13xx_cc26xx_sdk/kernel/nortos/lib/gcc/m4f/nortos_cc26x2x7.a(NoRTOS.c.obj)
 .data          0x0000000000000000        0x0 /project/staging/core_examples/cc13xx_cc26xx_sdk/kernel/nortos/lib/gcc/m4f/nortos_cc26x2x7.a(NoRTOS.c.obj)
 .bss           0x0000000000000000        0x0 /project/staging/core_examples/cc13xx_cc26xx_sdk/kernel/nortos/lib/gcc/m4f/nortos_cc26x2x7.a(NoRTOS.c.obj)
 .text.NoRTOS_getConfig
                0x0000000000000000       0x20 /project/staging/core_examples/cc13xx_cc26xx_sdk/kernel/nortos/lib/gcc/m4f/nortos_cc26x2x7.a(NoRTOS.c.obj)
 .text.NoRTOS_setConfig
                0x0000000000000000       0x28 /project/staging/core_examples/cc13xx_cc26xx_sdk/kernel/nortos/lib/gcc/m4f/nortos_cc26x2x7.a(NoRTOS.c.obj)
 .text          0x0000000000000000        0x0 /project/staging/core_examples/cc13xx_cc26xx_sdk/kernel/nortos/lib/gcc/m4f/nortos_cc26x2x7.a(MutexP_nortos.c.obj)
 .data          0x0000000000000000        0x0 /project/staging/core_examples/cc13xx_cc26xx_sdk/kernel/nortos/lib/gcc/m4f/nortos_cc26x2x7.a(MutexP_nortos.c.obj)
 .bss           0x0000000000000000        0x0 /project/staging/core_examples/cc13xx_cc26xx_sdk/kernel/nortos/lib/gcc/m4f/nortos_cc26x2x7.a(MutexP_nortos.c.obj)
 .text.MutexP_construct
                0x0000000000000000        0x4 /project/staging/core_examples/cc13xx_cc26xx_sdk/kernel/nortos/lib/gcc/m4f/nortos_cc26x2x7.a(MutexP_nortos.c.obj)
 .text.MutexP_destruct
                0x0000000000000000        0x4 /project/staging/core_examples/cc13xx_cc26xx_sdk/kernel/nortos/lib/gcc/m4f/nortos_cc26x2x7.a(MutexP_nortos.c.obj)
 .text.MutexP_delete
                0x0000000000000000        0x8 /project/staging/core_examples/cc13xx_cc26xx_sdk/kernel/nortos/lib/gcc/m4f/nortos_cc26x2x7.a(MutexP_nortos.c.obj)
 .text.MutexP_Params_init
                0x0000000000000000        0x4 /project/staging/core_examples/cc13xx_cc26xx_sdk/kernel/nortos/lib/gcc/m4f/nortos_cc26x2x7.a(MutexP_nortos.c.obj)
 .text          0x0000000000000000        0x0 /project/staging/core_examples/cc13xx_cc26xx_sdk/kernel/nortos/lib/gcc/m4f/nortos_cc26x2x7.a(SemaphoreP_nortos.c.obj)
 .data          0x0000000000000000        0x0 /project/staging/core_examples/cc13xx_cc26xx_sdk/kernel/nortos/lib/gcc/m4f/nortos_cc26x2x7.a(SemaphoreP_nortos.c.obj)
 .bss           0x0000000000000000        0x0 /project/staging/core_examples/cc13xx_cc26xx_sdk/kernel/nortos/lib/gcc/m4f/nortos_cc26x2x7.a(SemaphoreP_nortos.c.obj)
 .text.SemaphoreP_create
                0x0000000000000000       0x64 /project/staging/core_examples/cc13xx_cc26xx_sdk/kernel/nortos/lib/gcc/m4f/nortos_cc26x2x7.a(SemaphoreP_nortos.c.obj)
 .text.SemaphoreP_createBinaryCallback
                0x0000000000000000       0x3c /project/staging/core_examples/cc13xx_cc26xx_sdk/kernel/nortos/lib/gcc/m4f/nortos_cc26x2x7.a(SemaphoreP_nortos.c.obj)
 .text.SemaphoreP_Params_init
                0x0000000000000000       0x14 /project/staging/core_examples/cc13xx_cc26xx_sdk/kernel/nortos/lib/gcc/m4f/nortos_cc26x2x7.a(SemaphoreP_nortos.c.obj)
 .text.SemaphoreP_staticObjectSize
                0x0000000000000000        0x4 /project/staging/core_examples/cc13xx_cc26xx_sdk/kernel/nortos/lib/gcc/m4f/nortos_cc26x2x7.a(SemaphoreP_nortos.c.obj)
 .text          0x0000000000000000        0x0 /project/staging/core_examples/cc13xx_cc26xx_sdk/kernel/nortos/lib/gcc/m4f/nortos_cc26x2x7.a(SwiP_nortos.c.obj)
 .data          0x0000000000000000        0x0 /project/staging/core_examples/cc13xx_cc26xx_sdk/kernel/nortos/lib/gcc/m4f/nortos_cc26x2x7.a(SwiP_nortos.c.obj)
 .bss           0x0000000000000000        0x0 /project/staging/core_examples/cc13xx_cc26xx_sdk/kernel/nortos/lib/gcc/m4f/nortos_cc26x2x7.a(SwiP_nortos.c.obj)
 .text.SwiP_create
                0x0000000000000000      0x120 /project/staging/core_examples/cc13xx_cc26xx_sdk/kernel/nortos/lib/gcc/m4f/nortos_cc26x2x7.a(SwiP_nortos.c.obj)
 .text.SwiP_delete
                0x0000000000000000       0x3c /project/staging/core_examples/cc13xx_cc26xx_sdk/kernel/nortos/lib/gcc/m4f/nortos_cc26x2x7.a(SwiP_nortos.c.obj)
 .text.SwiP_getTrigger
                0x0000000000000000        0xc /project/staging/core_examples/cc13xx_cc26xx_sdk/kernel/nortos/lib/gcc/m4f/nortos_cc26x2x7.a(SwiP_nortos.c.obj)
 .text.SwiP_andn
                0x0000000000000000       0x88 /project/staging/core_examples/cc13xx_cc26xx_sdk/kernel/nortos/lib/gcc/m4f/nortos_cc26x2x7.a(SwiP_nortos.c.obj)
 .text.SwiP_dec
                0x0000000000000000       0x84 /project/staging/core_examples/cc13xx_cc26xx_sdk/kernel/nortos/lib/gcc/m4f/nortos_cc26x2x7.a(SwiP_nortos.c.obj)
 .text.SwiP_inc
                0x0000000000000000       0x7c /project/staging/core_examples/cc13xx_cc26xx_sdk/kernel/nortos/lib/gcc/m4f/nortos_cc26x2x7.a(SwiP_nortos.c.obj)
 .text.SwiP_inISR
                0x0000000000000000        0x4 /project/staging/core_examples/cc13xx_cc26xx_sdk/kernel/nortos/lib/gcc/m4f/nortos_cc26x2x7.a(SwiP_nortos.c.obj)
 .text.SwiP_or  0x0000000000000000       0x80 /project/staging/core_examples/cc13xx_cc26xx_sdk/kernel/nortos/lib/gcc/m4f/nortos_cc26x2x7.a(SwiP_nortos.c.obj)
 .text.SwiP_setPriority
                0x0000000000000000       0x20 /project/staging/core_examples/cc13xx_cc26xx_sdk/kernel/nortos/lib/gcc/m4f/nortos_cc26x2x7.a(SwiP_nortos.c.obj)
 .text.SwiP_staticObjectSize
                0x0000000000000000        0x4 /project/staging/core_examples/cc13xx_cc26xx_sdk/kernel/nortos/lib/gcc/m4f/nortos_cc26x2x7.a(SwiP_nortos.c.obj)
 .text          0x0000000000000000        0x0 /project/staging/core_examples/cc13xx_cc26xx_sdk/kernel/nortos/lib/gcc/m4f/nortos_cc26x2x7.a(SystemP_nortos.c.obj)
 .data          0x0000000000000000        0x0 /project/staging/core_examples/cc13xx_cc26xx_sdk/kernel/nortos/lib/gcc/m4f/nortos_cc26x2x7.a(SystemP_nortos.c.obj)
 .bss           0x0000000000000000        0x0 /project/staging/core_examples/cc13xx_cc26xx_sdk/kernel/nortos/lib/gcc/m4f/nortos_cc26x2x7.a(SystemP_nortos.c.obj)
 .text.SystemP_snprintf
                0x0000000000000000       0x1c /project/staging/core_examples/cc13xx_cc26xx_sdk/kernel/nortos/lib/gcc/m4f/nortos_cc26x2x7.a(SystemP_nortos.c.obj)
 .text.SystemP_startScheduler
                0x0000000000000000        0x4 /project/staging/core_examples/cc13xx_cc26xx_sdk/kernel/nortos/lib/gcc/m4f/nortos_cc26x2x7.a(SystemP_nortos.c.obj)
 .text          0x0000000000000000        0x0 /project/staging/core_examples/cc13xx_cc26xx_sdk/kernel/nortos/lib/gcc/m4f/nortos_cc26x2x7.a(ClockPTimer_nortos.c.obj)
 .data          0x0000000000000000        0x0 /project/staging/core_examples/cc13xx_cc26xx_sdk/kernel/nortos/lib/gcc/m4f/nortos_cc26x2x7.a(ClockPTimer_nortos.c.obj)
 .bss           0x0000000000000000        0x0 /project/staging/core_examples/cc13xx_cc26xx_sdk/kernel/nortos/lib/gcc/m4f/nortos_cc26x2x7.a(ClockPTimer_nortos.c.obj)
 .text.ClockP_getTicks
                0x0000000000000000       0x24 /project/staging/core_examples/cc13xx_cc26xx_sdk/kernel/nortos/lib/gcc/m4f/nortos_cc26x2x7.a(ClockPTimer_nortos.c.obj)
 .text.ClockP_scheduleNextTick
                0x0000000000000000       0x20 /project/staging/core_examples/cc13xx_cc26xx_sdk/kernel/nortos/lib/gcc/m4f/nortos_cc26x2x7.a(ClockPTimer_nortos.c.obj)
 .text.ClockP_walkQueueDynamic
                0x0000000000000000       0x98 /project/staging/core_examples/cc13xx_cc26xx_sdk/kernel/nortos/lib/gcc/m4f/nortos_cc26x2x7.a(ClockPTimer_nortos.c.obj)
 .text.ClockP_delete
                0x0000000000000000       0x20 /project/staging/core_examples/cc13xx_cc26xx_sdk/kernel/nortos/lib/gcc/m4f/nortos_cc26x2x7.a(ClockPTimer_nortos.c.obj)
 .text.ClockP_create
                0x0000000000000000       0x5c /project/staging/core_examples/cc13xx_cc26xx_sdk/kernel/nortos/lib/gcc/m4f/nortos_cc26x2x7.a(ClockPTimer_nortos.c.obj)
 .text.ClockP_setPeriod
                0x0000000000000000        0x4 /project/staging/core_examples/cc13xx_cc26xx_sdk/kernel/nortos/lib/gcc/m4f/nortos_cc26x2x7.a(ClockPTimer_nortos.c.obj)
 .text.ClockP_getTimeout
                0x0000000000000000       0x30 /project/staging/core_examples/cc13xx_cc26xx_sdk/kernel/nortos/lib/gcc/m4f/nortos_cc26x2x7.a(ClockPTimer_nortos.c.obj)
 .text.ClockP_getSystemTicks
                0x0000000000000000       0x34 /project/staging/core_examples/cc13xx_cc26xx_sdk/kernel/nortos/lib/gcc/m4f/nortos_cc26x2x7.a(ClockPTimer_nortos.c.obj)
 .text.ClockP_sleep
                0x0000000000000000       0x50 /project/staging/core_examples/cc13xx_cc26xx_sdk/kernel/nortos/lib/gcc/m4f/nortos_cc26x2x7.a(ClockPTimer_nortos.c.obj)
 .text.ClockP_staticObjectSize
                0x0000000000000000        0x4 /project/staging/core_examples/cc13xx_cc26xx_sdk/kernel/nortos/lib/gcc/m4f/nortos_cc26x2x7.a(ClockPTimer_nortos.c.obj)
 .text          0x0000000000000000        0x0 /project/staging/core_examples/cc13xx_cc26xx_sdk/kernel/nortos/lib/gcc/m4f/nortos_cc26x2x7.a(QueueP_nortos.c.obj)
 .data          0x0000000000000000        0x0 /project/staging/core_examples/cc13xx_cc26xx_sdk/kernel/nortos/lib/gcc/m4f/nortos_cc26x2x7.a(QueueP_nortos.c.obj)
 .bss           0x0000000000000000        0x0 /project/staging/core_examples/cc13xx_cc26xx_sdk/kernel/nortos/lib/gcc/m4f/nortos_cc26x2x7.a(QueueP_nortos.c.obj)
 .text.QueueP_getTail
                0x0000000000000000       0x1c /project/staging/core_examples/cc13xx_cc26xx_sdk/kernel/nortos/lib/gcc/m4f/nortos_cc26x2x7.a(QueueP_nortos.c.obj)
 .text.QueueP_elemClear
                0x0000000000000000        0x8 /project/staging/core_examples/cc13xx_cc26xx_sdk/kernel/nortos/lib/gcc/m4f/nortos_cc26x2x7.a(QueueP_nortos.c.obj)
 .text.QueueP_insert
                0x0000000000000000       0x20 /project/staging/core_examples/cc13xx_cc26xx_sdk/kernel/nortos/lib/gcc/m4f/nortos_cc26x2x7.a(QueueP_nortos.c.obj)
 .text.QueueP_prev
                0x0000000000000000        0x4 /project/staging/core_examples/cc13xx_cc26xx_sdk/kernel/nortos/lib/gcc/m4f/nortos_cc26x2x7.a(QueueP_nortos.c.obj)
 .text.QueueP_putHead
                0x0000000000000000       0x20 /project/staging/core_examples/cc13xx_cc26xx_sdk/kernel/nortos/lib/gcc/m4f/nortos_cc26x2x7.a(QueueP_nortos.c.obj)
 .text.QueueP_isQueued
                0x0000000000000000       0x14 /project/staging/core_examples/cc13xx_cc26xx_sdk/kernel/nortos/lib/gcc/m4f/nortos_cc26x2x7.a(QueueP_nortos.c.obj)
 .text          0x0000000000000000        0x0 /project/staging/core_examples/cc13xx_cc26xx_sdk/kernel/nortos/lib/gcc/m4f/nortos_cc26x2x7.a(HwiPCC26XX_nortos.c.obj)
 .data          0x0000000000000000        0x0 /project/staging/core_examples/cc13xx_cc26xx_sdk/kernel/nortos/lib/gcc/m4f/nortos_cc26x2x7.a(HwiPCC26XX_nortos.c.obj)
 .bss           0x0000000000000000        0x0 /project/staging/core_examples/cc13xx_cc26xx_sdk/kernel/nortos/lib/gcc/m4f/nortos_cc26x2x7.a(HwiPCC26XX_nortos.c.obj)
 .text.HwiP_delete
                0x0000000000000000       0x24 /project/staging/core_examples/cc13xx_cc26xx_sdk/kernel/nortos/lib/gcc/m4f/nortos_cc26x2x7.a(HwiPCC26XX_nortos.c.obj)
 .text.HwiP_create
                0x0000000000000000       0xa0 /project/staging/core_examples/cc13xx_cc26xx_sdk/kernel/nortos/lib/gcc/m4f/nortos_cc26x2x7.a(HwiPCC26XX_nortos.c.obj)
 .text.HwiP_plug
                0x0000000000000000        0x4 /project/staging/core_examples/cc13xx_cc26xx_sdk/kernel/nortos/lib/gcc/m4f/nortos_cc26x2x7.a(HwiPCC26XX_nortos.c.obj)
 .text.HwiP_setFunc
                0x0000000000000000       0x1c /project/staging/core_examples/cc13xx_cc26xx_sdk/kernel/nortos/lib/gcc/m4f/nortos_cc26x2x7.a(HwiPCC26XX_nortos.c.obj)
 .text.HwiP_inSwi
                0x0000000000000000       0x1c /project/staging/core_examples/cc13xx_cc26xx_sdk/kernel/nortos/lib/gcc/m4f/nortos_cc26x2x7.a(HwiPCC26XX_nortos.c.obj)
 .text.HwiP_setPriority
                0x0000000000000000       0x10 /project/staging/core_examples/cc13xx_cc26xx_sdk/kernel/nortos/lib/gcc/m4f/nortos_cc26x2x7.a(HwiPCC26XX_nortos.c.obj)
 .text.HwiP_staticObjectSize
                0x0000000000000000        0x4 /project/staging/core_examples/cc13xx_cc26xx_sdk/kernel/nortos/lib/gcc/m4f/nortos_cc26x2x7.a(HwiPCC26XX_nortos.c.obj)
 .text          0x0000000000000000        0x0 /project/staging/core_examples/cc13xx_cc26xx_sdk/kernel/nortos/lib/gcc/m4f/nortos_cc26x2x7.a(PowerCC26X2_nortos.c.obj)
 .data          0x0000000000000000        0x0 /project/staging/core_examples/cc13xx_cc26xx_sdk/kernel/nortos/lib/gcc/m4f/nortos_cc26x2x7.a(PowerCC26X2_nortos.c.obj)
 .bss           0x0000000000000000        0x0 /project/staging/core_examples/cc13xx_cc26xx_sdk/kernel/nortos/lib/gcc/m4f/nortos_cc26x2x7.a(PowerCC26X2_nortos.c.obj)
 .text          0x0000000000000000        0x0 /project/staging/core_examples/cc13xx_cc26xx_sdk/kernel/nortos/lib/gcc/m4f/nortos_cc26x2x7.a(TimerPCC26XX_nortos.c.obj)
 .data          0x0000000000000000        0x0 /project/staging/core_examples/cc13xx_cc26xx_sdk/kernel/nortos/lib/gcc/m4f/nortos_cc26x2x7.a(TimerPCC26XX_nortos.c.obj)
 .bss           0x0000000000000000        0x0 /project/staging/core_examples/cc13xx_cc26xx_sdk/kernel/nortos/lib/gcc/m4f/nortos_cc26x2x7.a(TimerPCC26XX_nortos.c.obj)
 .text.TimerP_create
                0x0000000000000000      0x108 /project/staging/core_examples/cc13xx_cc26xx_sdk/kernel/nortos/lib/gcc/m4f/nortos_cc26x2x7.a(TimerPCC26XX_nortos.c.obj)
 .text.TimerP_setThreshold
                0x0000000000000000       0x30 /project/staging/core_examples/cc13xx_cc26xx_sdk/kernel/nortos/lib/gcc/m4f/nortos_cc26x2x7.a(TimerPCC26XX_nortos.c.obj)
 .text.TimerP_startup
                0x0000000000000000       0x64 /project/staging/core_examples/cc13xx_cc26xx_sdk/kernel/nortos/lib/gcc/m4f/nortos_cc26x2x7.a(TimerPCC26XX_nortos.c.obj)
 .text.TimerP_start
                0x0000000000000000       0x54 /project/staging/core_examples/cc13xx_cc26xx_sdk/kernel/nortos/lib/gcc/m4f/nortos_cc26x2x7.a(TimerPCC26XX_nortos.c.obj)
 .text.TimerP_stop
                0x0000000000000000        0xc /project/staging/core_examples/cc13xx_cc26xx_sdk/kernel/nortos/lib/gcc/m4f/nortos_cc26x2x7.a(TimerPCC26XX_nortos.c.obj)
 .text.TimerP_setPeriod
                0x0000000000000000        0x4 /project/staging/core_examples/cc13xx_cc26xx_sdk/kernel/nortos/lib/gcc/m4f/nortos_cc26x2x7.a(TimerPCC26XX_nortos.c.obj)
 .text          0x0000000000000000        0x0 /project/staging/core_examples/cc13xx_cc26xx_sdk/kernel/nortos/lib/gcc/m4f/nortos_cc26x2x7.a(startup_cc13x2_cc26x2_gcc.c.obj)
 .data          0x0000000000000000        0x0 /project/staging/core_examples/cc13xx_cc26xx_sdk/kernel/nortos/lib/gcc/m4f/nortos_cc26x2x7.a(startup_cc13x2_cc26x2_gcc.c.obj)
 .bss           0x0000000000000000        0x0 /project/staging/core_examples/cc13xx_cc26xx_sdk/kernel/nortos/lib/gcc/m4f/nortos_cc26x2x7.a(startup_cc13x2_cc26x2_gcc.c.obj)
 .data.__dso_handle
                0x0000000000000000        0x4 /project/staging/core_examples/cc13xx_cc26xx_sdk/kernel/nortos/lib/gcc/m4f/nortos_cc26x2x7.a(startup_cc13x2_cc26x2_gcc.c.obj)
 .text          0x0000000000000000        0x0 /project/staging/core_examples/cc13xx_cc26xx_sdk/source/ti/devices/cc13x2x7_cc26x2x7/driverlib/bin/gcc/driverlib.lib(cpu.c.obj)
 .data          0x0000000000000000        0x0 /project/staging/core_examples/cc13xx_cc26xx_sdk/source/ti/devices/cc13x2x7_cc26x2x7/driverlib/bin/gcc/driverlib.lib(cpu.c.obj)
 .bss           0x0000000000000000        0x0 /project/staging/core_examples/cc13xx_cc26xx_sdk/source/ti/devices/cc13x2x7_cc26x2x7/driverlib/bin/gcc/driverlib.lib(cpu.c.obj)
 .text.NOROM_CPUbasepriGet
                0x0000000000000000        0x8 /project/staging/core_examples/cc13xx_cc26xx_sdk/source/ti/devices/cc13x2x7_cc26x2x7/driverlib/bin/gcc/driverlib.lib(cpu.c.obj)
 .text          0x0000000000000000        0x0 /project/staging/core_examples/cc13xx_cc26xx_sdk/source/ti/devices/cc13x2x7_cc26x2x7/driverlib/bin/gcc/driverlib.lib(interrupt.c.obj)
 .data          0x0000000000000000        0x0 /project/staging/core_examples/cc13xx_cc26xx_sdk/source/ti/devices/cc13x2x7_cc26x2x7/driverlib/bin/gcc/driverlib.lib(interrupt.c.obj)
 .bss           0x0000000000000000        0x0 /project/staging/core_examples/cc13xx_cc26xx_sdk/source/ti/devices/cc13x2x7_cc26x2x7/driverlib/bin/gcc/driverlib.lib(interrupt.c.obj)
 .text.NOROM_IntPriorityGroupingSet
                0x0000000000000000       0x1c /project/staging/core_examples/cc13xx_cc26xx_sdk/source/ti/devices/cc13x2x7_cc26x2x7/driverlib/bin/gcc/driverlib.lib(interrupt.c.obj)
 .text.NOROM_IntPriorityGroupingGet
                0x0000000000000000       0x5c /project/staging/core_examples/cc13xx_cc26xx_sdk/source/ti/devices/cc13x2x7_cc26x2x7/driverlib/bin/gcc/driverlib.lib(interrupt.c.obj)
 .text.NOROM_IntPrioritySet
                0x0000000000000000       0x2c /project/staging/core_examples/cc13xx_cc26xx_sdk/source/ti/devices/cc13x2x7_cc26x2x7/driverlib/bin/gcc/driverlib.lib(interrupt.c.obj)
 .text.NOROM_IntPriorityGet
                0x0000000000000000       0x1c /project/staging/core_examples/cc13xx_cc26xx_sdk/source/ti/devices/cc13x2x7_cc26x2x7/driverlib/bin/gcc/driverlib.lib(interrupt.c.obj)
 .text.NOROM_IntEnable
                0x0000000000000000       0x78 /project/staging/core_examples/cc13xx_cc26xx_sdk/source/ti/devices/cc13x2x7_cc26x2x7/driverlib/bin/gcc/driverlib.lib(interrupt.c.obj)
 .text.NOROM_IntDisable
                0x0000000000000000       0x78 /project/staging/core_examples/cc13xx_cc26xx_sdk/source/ti/devices/cc13x2x7_cc26x2x7/driverlib/bin/gcc/driverlib.lib(interrupt.c.obj)
 .text.NOROM_IntPendSet
                0x0000000000000000       0x64 /project/staging/core_examples/cc13xx_cc26xx_sdk/source/ti/devices/cc13x2x7_cc26x2x7/driverlib/bin/gcc/driverlib.lib(interrupt.c.obj)
 .text.NOROM_IntPendGet
                0x0000000000000000       0x2c /project/staging/core_examples/cc13xx_cc26xx_sdk/source/ti/devices/cc13x2x7_cc26x2x7/driverlib/bin/gcc/driverlib.lib(interrupt.c.obj)
 .text.NOROM_IntPendClear
                0x0000000000000000       0x54 /project/staging/core_examples/cc13xx_cc26xx_sdk/source/ti/devices/cc13x2x7_cc26x2x7/driverlib/bin/gcc/driverlib.lib(interrupt.c.obj)
 .rodata.g_pui32Priority
                0x0000000000000000       0x20 /project/staging/core_examples/cc13xx_cc26xx_sdk/source/ti/devices/cc13x2x7_cc26x2x7/driverlib/bin/gcc/driverlib.lib(interrupt.c.obj)
 .rodata.g_pui32Regs
                0x0000000000000000       0x48 /project/staging/core_examples/cc13xx_cc26xx_sdk/source/ti/devices/cc13x2x7_cc26x2x7/driverlib/bin/gcc/driverlib.lib(interrupt.c.obj)
 .text          0x0000000000000000        0x0 /project/staging/core_examples/cc13xx_cc26xx_sdk/source/ti/devices/cc13x2x7_cc26x2x7/driverlib/bin/gcc/driverlib.lib(osc.c.obj)
 .data          0x0000000000000000        0x0 /project/staging/core_examples/cc13xx_cc26xx_sdk/source/ti/devices/cc13x2x7_cc26x2x7/driverlib/bin/gcc/driverlib.lib(osc.c.obj)
 .bss           0x0000000000000000        0x0 /project/staging/core_examples/cc13xx_cc26xx_sdk/source/ti/devices/cc13x2x7_cc26x2x7/driverlib/bin/gcc/driverlib.lib(osc.c.obj)
 .text.findHposcCoefficients
                0x0000000000000000      0xa30 /project/staging/core_examples/cc13xx_cc26xx_sdk/source/ti/devices/cc13x2x7_cc26x2x7/driverlib/bin/gcc/driverlib.lib(osc.c.obj)
 .text.NOROM_OSCClockSourceSet
                0x0000000000000000       0x44 /project/staging/core_examples/cc13xx_cc26xx_sdk/source/ti/devices/cc13x2x7_cc26x2x7/driverlib/bin/gcc/driverlib.lib(osc.c.obj)
 .text.NOROM_OSCClockSourceGet
                0x0000000000000000       0x30 /project/staging/core_examples/cc13xx_cc26xx_sdk/source/ti/devices/cc13x2x7_cc26x2x7/driverlib/bin/gcc/driverlib.lib(osc.c.obj)
 .text.NOROM_OSCHF_GetStartupTime
                0x0000000000000000       0xc0 /project/staging/core_examples/cc13xx_cc26xx_sdk/source/ti/devices/cc13x2x7_cc26x2x7/driverlib/bin/gcc/driverlib.lib(osc.c.obj)
 .text.NOROM_OSC_AdjustXoscHfCapArray
                0x0000000000000000       0x40 /project/staging/core_examples/cc13xx_cc26xx_sdk/source/ti/devices/cc13x2x7_cc26x2x7/driverlib/bin/gcc/driverlib.lib(osc.c.obj)
 .text.NOROM_OSC_HPOSCInitializeFrequencyOffsetParameters
                0x0000000000000000      0x3dc /project/staging/core_examples/cc13xx_cc26xx_sdk/source/ti/devices/cc13x2x7_cc26x2x7/driverlib/bin/gcc/driverlib.lib(osc.c.obj)
 .text.NOROM_OSC_HPOSC_Debug_InitFreqOffsetParams
                0x0000000000000000      0x418 /project/staging/core_examples/cc13xx_cc26xx_sdk/source/ti/devices/cc13x2x7_cc26x2x7/driverlib/bin/gcc/driverlib.lib(osc.c.obj)
 .text.NOROM_OSC_HPOSCInitializeSingleInsertionFreqOffsParams
                0x0000000000000000      0x1cc /project/staging/core_examples/cc13xx_cc26xx_sdk/source/ti/devices/cc13x2x7_cc26x2x7/driverlib/bin/gcc/driverlib.lib(osc.c.obj)
 .text.NOROM_OSC_LFXOSCInitStaticOffset
                0x0000000000000000       0x98 /project/staging/core_examples/cc13xx_cc26xx_sdk/source/ti/devices/cc13x2x7_cc26x2x7/driverlib/bin/gcc/driverlib.lib(osc.c.obj)
 .text.NOROM_OSC_LFXOSCRelativeFrequencyOffsetGet
                0x0000000000000000       0x24 /project/staging/core_examples/cc13xx_cc26xx_sdk/source/ti/devices/cc13x2x7_cc26x2x7/driverlib/bin/gcc/driverlib.lib(osc.c.obj)
 .text.NOROM_OSC_HPOSCRelativeFrequencyOffsetToRFCoreFormatConvert
                0x0000000000000000        0xc /project/staging/core_examples/cc13xx_cc26xx_sdk/source/ti/devices/cc13x2x7_cc26x2x7/driverlib/bin/gcc/driverlib.lib(osc.c.obj)
 .text.NOROM_OSC_HPOSCRtcCompensate
                0x0000000000000000       0x80 /project/staging/core_examples/cc13xx_cc26xx_sdk/source/ti/devices/cc13x2x7_cc26x2x7/driverlib/bin/gcc/driverlib.lib(osc.c.obj)
 .text.NOROM_OSCHF_DebugGetCrystalAmplitude
                0x0000000000000000       0x3c /project/staging/core_examples/cc13xx_cc26xx_sdk/source/ti/devices/cc13x2x7_cc26x2x7/driverlib/bin/gcc/driverlib.lib(osc.c.obj)
 .text.NOROM_OSCHF_DebugGetExpectedAverageCrystalAmplitude
                0x0000000000000000       0x1c /project/staging/core_examples/cc13xx_cc26xx_sdk/source/ti/devices/cc13x2x7_cc26x2x7/driverlib/bin/gcc/driverlib.lib(osc.c.obj)
 .text.NOROM_OSCHF_DebugGetCrystalStartupTime
                0x0000000000000000       0xd0 /project/staging/core_examples/cc13xx_cc26xx_sdk/source/ti/devices/cc13x2x7_cc26x2x7/driverlib/bin/gcc/driverlib.lib(osc.c.obj)
 .rodata        0x0000000000000000       0x70 /project/staging/core_examples/cc13xx_cc26xx_sdk/source/ti/devices/cc13x2x7_cc26x2x7/driverlib/bin/gcc/driverlib.lib(osc.c.obj)
 .text          0x0000000000000000        0x0 /project/staging/core_examples/cc13xx_cc26xx_sdk/source/ti/devices/cc13x2x7_cc26x2x7/driverlib/bin/gcc/driverlib.lib(prcm.c.obj)
 .data          0x0000000000000000        0x0 /project/staging/core_examples/cc13xx_cc26xx_sdk/source/ti/devices/cc13x2x7_cc26x2x7/driverlib/bin/gcc/driverlib.lib(prcm.c.obj)
 .bss           0x0000000000000000        0x0 /project/staging/core_examples/cc13xx_cc26xx_sdk/source/ti/devices/cc13x2x7_cc26x2x7/driverlib/bin/gcc/driverlib.lib(prcm.c.obj)
 .text.NOROM_PRCMInfClockConfigureSet
                0x0000000000000000       0x40 /project/staging/core_examples/cc13xx_cc26xx_sdk/source/ti/devices/cc13x2x7_cc26x2x7/driverlib/bin/gcc/driverlib.lib(prcm.c.obj)
 .text.NOROM_PRCMInfClockConfigureGet
                0x0000000000000000       0x44 /project/staging/core_examples/cc13xx_cc26xx_sdk/source/ti/devices/cc13x2x7_cc26x2x7/driverlib/bin/gcc/driverlib.lib(prcm.c.obj)
 .text.NOROM_PRCMAudioClockConfigSet
                0x0000000000000000       0x6c /project/staging/core_examples/cc13xx_cc26xx_sdk/source/ti/devices/cc13x2x7_cc26x2x7/driverlib/bin/gcc/driverlib.lib(prcm.c.obj)
 .text.NOROM_PRCMAudioClockConfigSetOverride
                0x0000000000000000       0x3c /project/staging/core_examples/cc13xx_cc26xx_sdk/source/ti/devices/cc13x2x7_cc26x2x7/driverlib/bin/gcc/driverlib.lib(prcm.c.obj)
 .text.PRCMAudioClockConfigOverride
                0x0000000000000000       0x3c /project/staging/core_examples/cc13xx_cc26xx_sdk/source/ti/devices/cc13x2x7_cc26x2x7/driverlib/bin/gcc/driverlib.lib(prcm.c.obj)
 .text.NOROM_PRCMAudioClockInternalSource
                0x0000000000000000        0xc /project/staging/core_examples/cc13xx_cc26xx_sdk/source/ti/devices/cc13x2x7_cc26x2x7/driverlib/bin/gcc/driverlib.lib(prcm.c.obj)
 .text.NOROM_PRCMAudioClockExternalSource
                0x0000000000000000        0xc /project/staging/core_examples/cc13xx_cc26xx_sdk/source/ti/devices/cc13x2x7_cc26x2x7/driverlib/bin/gcc/driverlib.lib(prcm.c.obj)
 .text.NOROM_PRCMPowerDomainOn
                0x0000000000000000       0x48 /project/staging/core_examples/cc13xx_cc26xx_sdk/source/ti/devices/cc13x2x7_cc26x2x7/driverlib/bin/gcc/driverlib.lib(prcm.c.obj)
 .text.NOROM_PRCMPowerDomainOff
                0x0000000000000000       0x4c /project/staging/core_examples/cc13xx_cc26xx_sdk/source/ti/devices/cc13x2x7_cc26x2x7/driverlib/bin/gcc/driverlib.lib(prcm.c.obj)
 .text.NOROM_PRCMPeripheralRunEnable
                0x0000000000000000       0x20 /project/staging/core_examples/cc13xx_cc26xx_sdk/source/ti/devices/cc13x2x7_cc26x2x7/driverlib/bin/gcc/driverlib.lib(prcm.c.obj)
 .text.NOROM_PRCMPeripheralRunDisable
                0x0000000000000000       0x24 /project/staging/core_examples/cc13xx_cc26xx_sdk/source/ti/devices/cc13x2x7_cc26x2x7/driverlib/bin/gcc/driverlib.lib(prcm.c.obj)
 .text.NOROM_PRCMPeripheralSleepEnable
                0x0000000000000000       0x20 /project/staging/core_examples/cc13xx_cc26xx_sdk/source/ti/devices/cc13x2x7_cc26x2x7/driverlib/bin/gcc/driverlib.lib(prcm.c.obj)
 .text.NOROM_PRCMPeripheralSleepDisable
                0x0000000000000000       0x24 /project/staging/core_examples/cc13xx_cc26xx_sdk/source/ti/devices/cc13x2x7_cc26x2x7/driverlib/bin/gcc/driverlib.lib(prcm.c.obj)
 .text.NOROM_PRCMPeripheralDeepSleepEnable
                0x0000000000000000       0x20 /project/staging/core_examples/cc13xx_cc26xx_sdk/source/ti/devices/cc13x2x7_cc26x2x7/driverlib/bin/gcc/driverlib.lib(prcm.c.obj)
 .text.NOROM_PRCMPeripheralDeepSleepDisable
                0x0000000000000000       0x24 /project/staging/core_examples/cc13xx_cc26xx_sdk/source/ti/devices/cc13x2x7_cc26x2x7/driverlib/bin/gcc/driverlib.lib(prcm.c.obj)
 .text.NOROM_PRCMDeepSleep
                0x0000000000000000       0x1c /project/staging/core_examples/cc13xx_cc26xx_sdk/source/ti/devices/cc13x2x7_cc26x2x7/driverlib/bin/gcc/driverlib.lib(prcm.c.obj)
 .rodata.CSWTCH.13
                0x0000000000000000       0x20 /project/staging/core_examples/cc13xx_cc26xx_sdk/source/ti/devices/cc13x2x7_cc26x2x7/driverlib/bin/gcc/driverlib.lib(prcm.c.obj)
 .rodata.CSWTCH.14
                0x0000000000000000       0x20 /project/staging/core_examples/cc13xx_cc26xx_sdk/source/ti/devices/cc13x2x7_cc26x2x7/driverlib/bin/gcc/driverlib.lib(prcm.c.obj)
 .rodata.CSWTCH.15
                0x0000000000000000       0x20 /project/staging/core_examples/cc13xx_cc26xx_sdk/source/ti/devices/cc13x2x7_cc26x2x7/driverlib/bin/gcc/driverlib.lib(prcm.c.obj)
 .rodata.g_pui32DCGCRegs
                0x0000000000000000       0x1c /project/staging/core_examples/cc13xx_cc26xx_sdk/source/ti/devices/cc13x2x7_cc26x2x7/driverlib/bin/gcc/driverlib.lib(prcm.c.obj)
 .rodata.g_pui32RCGCRegs
                0x0000000000000000       0x1c /project/staging/core_examples/cc13xx_cc26xx_sdk/source/ti/devices/cc13x2x7_cc26x2x7/driverlib/bin/gcc/driverlib.lib(prcm.c.obj)
 .rodata.g_pui32SCGCRegs
                0x0000000000000000       0x1c /project/staging/core_examples/cc13xx_cc26xx_sdk/source/ti/devices/cc13x2x7_cc26x2x7/driverlib/bin/gcc/driverlib.lib(prcm.c.obj)
 .text          0x0000000000000000        0x0 /project/staging/core_examples/cc13xx_cc26xx_sdk/source/ti/devices/cc13x2x7_cc26x2x7/driverlib/bin/gcc/driverlib.lib(setup.c.obj)
 .data          0x0000000000000000        0x0 /project/staging/core_examples/cc13xx_cc26xx_sdk/source/ti/devices/cc13x2x7_cc26x2x7/driverlib/bin/gcc/driverlib.lib(setup.c.obj)
 .bss           0x0000000000000000        0x0 /project/staging/core_examples/cc13xx_cc26xx_sdk/source/ti/devices/cc13x2x7_cc26x2x7/driverlib/bin/gcc/driverlib.lib(setup.c.obj)
 .text          0x0000000000000000        0x0 /project/staging/core_examples/cc13xx_cc26xx_sdk/source/ti/devices/cc13x2x7_cc26x2x7/driverlib/bin/gcc/driverlib.lib(sys_ctrl.c.obj)
 .data          0x0000000000000000        0x0 /project/staging/core_examples/cc13xx_cc26xx_sdk/source/ti/devices/cc13x2x7_cc26x2x7/driverlib/bin/gcc/driverlib.lib(sys_ctrl.c.obj)
 .bss           0x0000000000000000        0x0 /project/staging/core_examples/cc13xx_cc26xx_sdk/source/ti/devices/cc13x2x7_cc26x2x7/driverlib/bin/gcc/driverlib.lib(sys_ctrl.c.obj)
 .text.NOROM_SysCtrlShutdownWithAbort
                0x0000000000000000       0x70 /project/staging/core_examples/cc13xx_cc26xx_sdk/source/ti/devices/cc13x2x7_cc26x2x7/driverlib/bin/gcc/driverlib.lib(sys_ctrl.c.obj)
 .text.NOROM_SysCtrlShutdown
                0x0000000000000000        0xc /project/staging/core_examples/cc13xx_cc26xx_sdk/source/ti/devices/cc13x2x7_cc26x2x7/driverlib/bin/gcc/driverlib.lib(sys_ctrl.c.obj)
 .text.NOROM_SysCtrlSetRechargeBeforePowerDown
                0x0000000000000000       0x1c /project/staging/core_examples/cc13xx_cc26xx_sdk/source/ti/devices/cc13x2x7_cc26x2x7/driverlib/bin/gcc/driverlib.lib(sys_ctrl.c.obj)
 .text.NOROM_SysCtrlAdjustRechargeAfterPowerDown
                0x0000000000000000        0x4 /project/staging/core_examples/cc13xx_cc26xx_sdk/source/ti/devices/cc13x2x7_cc26x2x7/driverlib/bin/gcc/driverlib.lib(sys_ctrl.c.obj)
 .text.NOROM_SysCtrl_DCDC_VoltageConditionalControl
                0x0000000000000000       0x7c /project/staging/core_examples/cc13xx_cc26xx_sdk/source/ti/devices/cc13x2x7_cc26x2x7/driverlib/bin/gcc/driverlib.lib(sys_ctrl.c.obj)
 .text.NOROM_SysCtrlResetSourceGet
                0x0000000000000000       0x20 /project/staging/core_examples/cc13xx_cc26xx_sdk/source/ti/devices/cc13x2x7_cc26x2x7/driverlib/bin/gcc/driverlib.lib(sys_ctrl.c.obj)
 .text          0x0000000000000000        0x0 /project/staging/core_examples/cc13xx_cc26xx_sdk/source/ti/devices/cc13x2x7_cc26x2x7/driverlib/bin/gcc/driverlib.lib(aux_sysif.c.obj)
 .data          0x0000000000000000        0x0 /project/staging/core_examples/cc13xx_cc26xx_sdk/source/ti/devices/cc13x2x7_cc26x2x7/driverlib/bin/gcc/driverlib.lib(aux_sysif.c.obj)
 .bss           0x0000000000000000        0x0 /project/staging/core_examples/cc13xx_cc26xx_sdk/source/ti/devices/cc13x2x7_cc26x2x7/driverlib/bin/gcc/driverlib.lib(aux_sysif.c.obj)
 .text          0x0000000000000000        0x0 /project/staging/core_examples/cc13xx_cc26xx_sdk/source/ti/devices/cc13x2x7_cc26x2x7/driverlib/bin/gcc/driverlib.lib(chipinfo.c.obj)
 .data          0x0000000000000000        0x0 /project/staging/core_examples/cc13xx_cc26xx_sdk/source/ti/devices/cc13x2x7_cc26x2x7/driverlib/bin/gcc/driverlib.lib(chipinfo.c.obj)
 .bss           0x0000000000000000        0x0 /project/staging/core_examples/cc13xx_cc26xx_sdk/source/ti/devices/cc13x2x7_cc26x2x7/driverlib/bin/gcc/driverlib.lib(chipinfo.c.obj)
 .text.NOROM_ChipInfo_GetSupportedProtocol_BV
                0x0000000000000000       0x10 /project/staging/core_examples/cc13xx_cc26xx_sdk/source/ti/devices/cc13x2x7_cc26x2x7/driverlib/bin/gcc/driverlib.lib(chipinfo.c.obj)
 .text.NOROM_ChipInfo_GetPackageType
                0x0000000000000000       0x1c /project/staging/core_examples/cc13xx_cc26xx_sdk/source/ti/devices/cc13x2x7_cc26x2x7/driverlib/bin/gcc/driverlib.lib(chipinfo.c.obj)
 .text.NOROM_ChipInfo_GetChipFamily
                0x0000000000000000       0x1c /project/staging/core_examples/cc13xx_cc26xx_sdk/source/ti/devices/cc13x2x7_cc26x2x7/driverlib/bin/gcc/driverlib.lib(chipinfo.c.obj)
 .text.NOROM_ChipInfo_GetChipType
                0x0000000000000000       0x5c /project/staging/core_examples/cc13xx_cc26xx_sdk/source/ti/devices/cc13x2x7_cc26x2x7/driverlib/bin/gcc/driverlib.lib(chipinfo.c.obj)
 .text.NOROM_ChipInfo_GetHwRevision
                0x0000000000000000       0x44 /project/staging/core_examples/cc13xx_cc26xx_sdk/source/ti/devices/cc13x2x7_cc26x2x7/driverlib/bin/gcc/driverlib.lib(chipinfo.c.obj)
 .data          0x0000000000000000        0x0 /home/developer/.conan/data/arm-none-eabi-gcc/9.2019.q4.major-0/library-msp/ga/package/44fcf6b9a7fb86b2586303e3db40189d3b511830/bin/../lib/gcc/arm-none-eabi/9.2.1/thumb/v7e-m+fp/hard/libgcc.a(_arm_muldf3.o)
 .bss           0x0000000000000000        0x0 /home/developer/.conan/data/arm-none-eabi-gcc/9.2019.q4.major-0/library-msp/ga/package/44fcf6b9a7fb86b2586303e3db40189d3b511830/bin/../lib/gcc/arm-none-eabi/9.2.1/thumb/v7e-m+fp/hard/libgcc.a(_arm_muldf3.o)
 .data          0x0000000000000000        0x0 /home/developer/.conan/data/arm-none-eabi-gcc/9.2019.q4.major-0/library-msp/ga/package/44fcf6b9a7fb86b2586303e3db40189d3b511830/bin/../lib/gcc/arm-none-eabi/9.2.1/thumb/v7e-m+fp/hard/libgcc.a(_arm_addsubdf3.o)
 .bss           0x0000000000000000        0x0 /home/developer/.conan/data/arm-none-eabi-gcc/9.2019.q4.major-0/library-msp/ga/package/44fcf6b9a7fb86b2586303e3db40189d3b511830/bin/../lib/gcc/arm-none-eabi/9.2.1/thumb/v7e-m+fp/hard/libgcc.a(_arm_addsubdf3.o)
 .data          0x0000000000000000        0x0 /home/developer/.conan/data/arm-none-eabi-gcc/9.2019.q4.major-0/library-msp/ga/package/44fcf6b9a7fb86b2586303e3db40189d3b511830/bin/../lib/gcc/arm-none-eabi/9.2.1/thumb/v7e-m+fp/hard/libgcc.a(_arm_cmpdf2.o)
 .bss           0x0000000000000000        0x0 /home/developer/.conan/data/arm-none-eabi-gcc/9.2019.q4.major-0/library-msp/ga/package/44fcf6b9a7fb86b2586303e3db40189d3b511830/bin/../lib/gcc/arm-none-eabi/9.2.1/thumb/v7e-m+fp/hard/libgcc.a(_arm_cmpdf2.o)
 .data          0x0000000000000000        0x0 /home/developer/.conan/data/arm-none-eabi-gcc/9.2019.q4.major-0/library-msp/ga/package/44fcf6b9a7fb86b2586303e3db40189d3b511830/bin/../lib/gcc/arm-none-eabi/9.2.1/thumb/v7e-m+fp/hard/libgcc.a(_arm_fixdfsi.o)
 .bss           0x0000000000000000        0x0 /home/developer/.conan/data/arm-none-eabi-gcc/9.2019.q4.major-0/library-msp/ga/package/44fcf6b9a7fb86b2586303e3db40189d3b511830/bin/../lib/gcc/arm-none-eabi/9.2.1/thumb/v7e-m+fp/hard/libgcc.a(_arm_fixdfsi.o)
 .data          0x0000000000000000        0x0 /home/developer/.conan/data/arm-none-eabi-gcc/9.2019.q4.major-0/library-msp/ga/package/44fcf6b9a7fb86b2586303e3db40189d3b511830/bin/../lib/gcc/arm-none-eabi/9.2.1/thumb/v7e-m+fp/hard/libgcc.a(_arm_fixunsdfsi.o)
 .bss           0x0000000000000000        0x0 /home/developer/.conan/data/arm-none-eabi-gcc/9.2019.q4.major-0/library-msp/ga/package/44fcf6b9a7fb86b2586303e3db40189d3b511830/bin/../lib/gcc/arm-none-eabi/9.2.1/thumb/v7e-m+fp/hard/libgcc.a(_arm_fixunsdfsi.o)
 .text          0x0000000000000000       0xa0 /home/developer/.conan/data/arm-none-eabi-gcc/9.2019.q4.major-0/library-msp/ga/package/44fcf6b9a7fb86b2586303e3db40189d3b511830/bin/../lib/gcc/arm-none-eabi/9.2.1/thumb/v7e-m+fp/hard/libgcc.a(_aeabi_ldivmod.o)
 .data          0x0000000000000000        0x0 /home/developer/.conan/data/arm-none-eabi-gcc/9.2019.q4.major-0/library-msp/ga/package/44fcf6b9a7fb86b2586303e3db40189d3b511830/bin/../lib/gcc/arm-none-eabi/9.2.1/thumb/v7e-m+fp/hard/libgcc.a(_aeabi_ldivmod.o)
 .bss           0x0000000000000000        0x0 /home/developer/.conan/data/arm-none-eabi-gcc/9.2019.q4.major-0/library-msp/ga/package/44fcf6b9a7fb86b2586303e3db40189d3b511830/bin/../lib/gcc/arm-none-eabi/9.2.1/thumb/v7e-m+fp/hard/libgcc.a(_aeabi_ldivmod.o)
 .debug_frame   0x0000000000000000       0x44 /home/developer/.conan/data/arm-none-eabi-gcc/9.2019.q4.major-0/library-msp/ga/package/44fcf6b9a7fb86b2586303e3db40189d3b511830/bin/../lib/gcc/arm-none-eabi/9.2.1/thumb/v7e-m+fp/hard/libgcc.a(_aeabi_ldivmod.o)
 .ARM.attributes
                0x0000000000000000       0x1e /home/developer/.conan/data/arm-none-eabi-gcc/9.2019.q4.major-0/library-msp/ga/package/44fcf6b9a7fb86b2586303e3db40189d3b511830/bin/../lib/gcc/arm-none-eabi/9.2.1/thumb/v7e-m+fp/hard/libgcc.a(_aeabi_ldivmod.o)
 .data          0x0000000000000000        0x0 /home/developer/.conan/data/arm-none-eabi-gcc/9.2019.q4.major-0/library-msp/ga/package/44fcf6b9a7fb86b2586303e3db40189d3b511830/bin/../lib/gcc/arm-none-eabi/9.2.1/thumb/v7e-m+fp/hard/libgcc.a(_aeabi_uldivmod.o)
 .bss           0x0000000000000000        0x0 /home/developer/.conan/data/arm-none-eabi-gcc/9.2019.q4.major-0/library-msp/ga/package/44fcf6b9a7fb86b2586303e3db40189d3b511830/bin/../lib/gcc/arm-none-eabi/9.2.1/thumb/v7e-m+fp/hard/libgcc.a(_aeabi_uldivmod.o)
 .data          0x0000000000000000        0x0 /home/developer/.conan/data/arm-none-eabi-gcc/9.2019.q4.major-0/library-msp/ga/package/44fcf6b9a7fb86b2586303e3db40189d3b511830/bin/../lib/gcc/arm-none-eabi/9.2.1/thumb/v7e-m+fp/hard/libgcc.a(_udivmoddi4.o)
 .bss           0x0000000000000000        0x0 /home/developer/.conan/data/arm-none-eabi-gcc/9.2019.q4.major-0/library-msp/ga/package/44fcf6b9a7fb86b2586303e3db40189d3b511830/bin/../lib/gcc/arm-none-eabi/9.2.1/thumb/v7e-m+fp/hard/libgcc.a(_udivmoddi4.o)
 .ARM.extab     0x0000000000000000        0x0 /home/developer/.conan/data/arm-none-eabi-gcc/9.2019.q4.major-0/library-msp/ga/package/44fcf6b9a7fb86b2586303e3db40189d3b511830/bin/../lib/gcc/arm-none-eabi/9.2.1/thumb/v7e-m+fp/hard/libgcc.a(_udivmoddi4.o)
 .data          0x0000000000000000        0x0 /home/developer/.conan/data/arm-none-eabi-gcc/9.2019.q4.major-0/library-msp/ga/package/44fcf6b9a7fb86b2586303e3db40189d3b511830/bin/../lib/gcc/arm-none-eabi/9.2.1/thumb/v7e-m+fp/hard/libgcc.a(_dvmd_tls.o)
 .bss           0x0000000000000000        0x0 /home/developer/.conan/data/arm-none-eabi-gcc/9.2019.q4.major-0/library-msp/ga/package/44fcf6b9a7fb86b2586303e3db40189d3b511830/bin/../lib/gcc/arm-none-eabi/9.2.1/thumb/v7e-m+fp/hard/libgcc.a(_dvmd_tls.o)
 .text          0x0000000000000000        0x0 /home/developer/.conan/data/arm-none-eabi-gcc/9.2019.q4.major-0/library-msp/ga/package/44fcf6b9a7fb86b2586303e3db40189d3b511830/bin/../lib/gcc/arm-none-eabi/9.2.1/../../../../arm-none-eabi/lib/thumb/v7e-m+fp/hard/libc_nano.a(lib_a-malloc.o)
 .data          0x0000000000000000        0x0 /home/developer/.conan/data/arm-none-eabi-gcc/9.2019.q4.major-0/library-msp/ga/package/44fcf6b9a7fb86b2586303e3db40189d3b511830/bin/../lib/gcc/arm-none-eabi/9.2.1/../../../../arm-none-eabi/lib/thumb/v7e-m+fp/hard/libc_nano.a(lib_a-malloc.o)
 .bss           0x0000000000000000        0x0 /home/developer/.conan/data/arm-none-eabi-gcc/9.2019.q4.major-0/library-msp/ga/package/44fcf6b9a7fb86b2586303e3db40189d3b511830/bin/../lib/gcc/arm-none-eabi/9.2.1/../../../../arm-none-eabi/lib/thumb/v7e-m+fp/hard/libc_nano.a(lib_a-malloc.o)
 .text          0x0000000000000000        0x0 /home/developer/.conan/data/arm-none-eabi-gcc/9.2019.q4.major-0/library-msp/ga/package/44fcf6b9a7fb86b2586303e3db40189d3b511830/bin/../lib/gcc/arm-none-eabi/9.2.1/../../../../arm-none-eabi/lib/thumb/v7e-m+fp/hard/libc_nano.a(lib_a-memcpy-stub.o)
 .data          0x0000000000000000        0x0 /home/developer/.conan/data/arm-none-eabi-gcc/9.2019.q4.major-0/library-msp/ga/package/44fcf6b9a7fb86b2586303e3db40189d3b511830/bin/../lib/gcc/arm-none-eabi/9.2.1/../../../../arm-none-eabi/lib/thumb/v7e-m+fp/hard/libc_nano.a(lib_a-memcpy-stub.o)
 .bss           0x0000000000000000        0x0 /home/developer/.conan/data/arm-none-eabi-gcc/9.2019.q4.major-0/library-msp/ga/package/44fcf6b9a7fb86b2586303e3db40189d3b511830/bin/../lib/gcc/arm-none-eabi/9.2.1/../../../../arm-none-eabi/lib/thumb/v7e-m+fp/hard/libc_nano.a(lib_a-memcpy-stub.o)
 .text          0x0000000000000000        0x0 /home/developer/.conan/data/arm-none-eabi-gcc/9.2019.q4.major-0/library-msp/ga/package/44fcf6b9a7fb86b2586303e3db40189d3b511830/bin/../lib/gcc/arm-none-eabi/9.2.1/../../../../arm-none-eabi/lib/thumb/v7e-m+fp/hard/libc_nano.a(lib_a-memset.o)
 .data          0x0000000000000000        0x0 /home/developer/.conan/data/arm-none-eabi-gcc/9.2019.q4.major-0/library-msp/ga/package/44fcf6b9a7fb86b2586303e3db40189d3b511830/bin/../lib/gcc/arm-none-eabi/9.2.1/../../../../arm-none-eabi/lib/thumb/v7e-m+fp/hard/libc_nano.a(lib_a-memset.o)
 .bss           0x0000000000000000        0x0 /home/developer/.conan/data/arm-none-eabi-gcc/9.2019.q4.major-0/library-msp/ga/package/44fcf6b9a7fb86b2586303e3db40189d3b511830/bin/../lib/gcc/arm-none-eabi/9.2.1/../../../../arm-none-eabi/lib/thumb/v7e-m+fp/hard/libc_nano.a(lib_a-memset.o)
 .text          0x0000000000000000        0x0 /home/developer/.conan/data/arm-none-eabi-gcc/9.2019.q4.major-0/library-msp/ga/package/44fcf6b9a7fb86b2586303e3db40189d3b511830/bin/../lib/gcc/arm-none-eabi/9.2.1/../../../../arm-none-eabi/lib/thumb/v7e-m+fp/hard/libc_nano.a(lib_a-nano-freer.o)
 .data          0x0000000000000000        0x0 /home/developer/.conan/data/arm-none-eabi-gcc/9.2019.q4.major-0/library-msp/ga/package/44fcf6b9a7fb86b2586303e3db40189d3b511830/bin/../lib/gcc/arm-none-eabi/9.2.1/../../../../arm-none-eabi/lib/thumb/v7e-m+fp/hard/libc_nano.a(lib_a-nano-freer.o)
 .bss           0x0000000000000000        0x0 /home/developer/.conan/data/arm-none-eabi-gcc/9.2019.q4.major-0/library-msp/ga/package/44fcf6b9a7fb86b2586303e3db40189d3b511830/bin/../lib/gcc/arm-none-eabi/9.2.1/../../../../arm-none-eabi/lib/thumb/v7e-m+fp/hard/libc_nano.a(lib_a-nano-freer.o)
 .text          0x0000000000000000        0x0 /home/developer/.conan/data/arm-none-eabi-gcc/9.2019.q4.major-0/library-msp/ga/package/44fcf6b9a7fb86b2586303e3db40189d3b511830/bin/../lib/gcc/arm-none-eabi/9.2.1/../../../../arm-none-eabi/lib/thumb/v7e-m+fp/hard/libc_nano.a(lib_a-nano-mallocr.o)
 .data          0x0000000000000000        0x0 /home/developer/.conan/data/arm-none-eabi-gcc/9.2019.q4.major-0/library-msp/ga/package/44fcf6b9a7fb86b2586303e3db40189d3b511830/bin/../lib/gcc/arm-none-eabi/9.2.1/../../../../arm-none-eabi/lib/thumb/v7e-m+fp/hard/libc_nano.a(lib_a-nano-mallocr.o)
 .bss           0x0000000000000000        0x0 /home/developer/.conan/data/arm-none-eabi-gcc/9.2019.q4.major-0/library-msp/ga/package/44fcf6b9a7fb86b2586303e3db40189d3b511830/bin/../lib/gcc/arm-none-eabi/9.2.1/../../../../arm-none-eabi/lib/thumb/v7e-m+fp/hard/libc_nano.a(lib_a-nano-mallocr.o)
 .text          0x0000000000000000        0x0 /home/developer/.conan/data/arm-none-eabi-gcc/9.2019.q4.major-0/library-msp/ga/package/44fcf6b9a7fb86b2586303e3db40189d3b511830/bin/../lib/gcc/arm-none-eabi/9.2.1/../../../../arm-none-eabi/lib/thumb/v7e-m+fp/hard/libc_nano.a(lib_a-sbrkr.o)
 .data          0x0000000000000000        0x0 /home/developer/.conan/data/arm-none-eabi-gcc/9.2019.q4.major-0/library-msp/ga/package/44fcf6b9a7fb86b2586303e3db40189d3b511830/bin/../lib/gcc/arm-none-eabi/9.2.1/../../../../arm-none-eabi/lib/thumb/v7e-m+fp/hard/libc_nano.a(lib_a-sbrkr.o)
 .bss           0x0000000000000000        0x0 /home/developer/.conan/data/arm-none-eabi-gcc/9.2019.q4.major-0/library-msp/ga/package/44fcf6b9a7fb86b2586303e3db40189d3b511830/bin/../lib/gcc/arm-none-eabi/9.2.1/../../../../arm-none-eabi/lib/thumb/v7e-m+fp/hard/libc_nano.a(lib_a-sbrkr.o)
 .data          0x0000000000000000        0x0 /home/developer/.conan/data/arm-none-eabi-gcc/9.2019.q4.major-0/library-msp/ga/package/44fcf6b9a7fb86b2586303e3db40189d3b511830/bin/../lib/gcc/arm-none-eabi/9.2.1/../../../../arm-none-eabi/lib/thumb/v7e-m+fp/hard/libc_nano.a(lib_a-strcmp.o)
 .bss           0x0000000000000000        0x0 /home/developer/.conan/data/arm-none-eabi-gcc/9.2019.q4.major-0/library-msp/ga/package/44fcf6b9a7fb86b2586303e3db40189d3b511830/bin/../lib/gcc/arm-none-eabi/9.2.1/../../../../arm-none-eabi/lib/thumb/v7e-m+fp/hard/libc_nano.a(lib_a-strcmp.o)
 .text          0x0000000000000000        0x0 /home/developer/.conan/data/arm-none-eabi-gcc/9.2019.q4.major-0/library-msp/ga/package/44fcf6b9a7fb86b2586303e3db40189d3b511830/bin/../lib/gcc/arm-none-eabi/9.2.1/../../../../arm-none-eabi/lib/thumb/v7e-m+fp/hard/libc_nano.a(lib_a-strcpy.o)
 .data          0x0000000000000000        0x0 /home/developer/.conan/data/arm-none-eabi-gcc/9.2019.q4.major-0/library-msp/ga/package/44fcf6b9a7fb86b2586303e3db40189d3b511830/bin/../lib/gcc/arm-none-eabi/9.2.1/../../../../arm-none-eabi/lib/thumb/v7e-m+fp/hard/libc_nano.a(lib_a-strcpy.o)
 .bss           0x0000000000000000        0x0 /home/developer/.conan/data/arm-none-eabi-gcc/9.2019.q4.major-0/library-msp/ga/package/44fcf6b9a7fb86b2586303e3db40189d3b511830/bin/../lib/gcc/arm-none-eabi/9.2.1/../../../../arm-none-eabi/lib/thumb/v7e-m+fp/hard/libc_nano.a(lib_a-strcpy.o)
 .text.strcpy   0x0000000000000000       0x10 /home/developer/.conan/data/arm-none-eabi-gcc/9.2019.q4.major-0/library-msp/ga/package/44fcf6b9a7fb86b2586303e3db40189d3b511830/bin/../lib/gcc/arm-none-eabi/9.2.1/../../../../arm-none-eabi/lib/thumb/v7e-m+fp/hard/libc_nano.a(lib_a-strcpy.o)
 .debug_frame   0x0000000000000000       0x20 /home/developer/.conan/data/arm-none-eabi-gcc/9.2019.q4.major-0/library-msp/ga/package/44fcf6b9a7fb86b2586303e3db40189d3b511830/bin/../lib/gcc/arm-none-eabi/9.2.1/../../../../arm-none-eabi/lib/thumb/v7e-m+fp/hard/libc_nano.a(lib_a-strcpy.o)
 .ARM.attributes
                0x0000000000000000       0x34 /home/developer/.conan/data/arm-none-eabi-gcc/9.2019.q4.major-0/library-msp/ga/package/44fcf6b9a7fb86b2586303e3db40189d3b511830/bin/../lib/gcc/arm-none-eabi/9.2.1/../../../../arm-none-eabi/lib/thumb/v7e-m+fp/hard/libc_nano.a(lib_a-strcpy.o)
 .data          0x0000000000000000        0x0 /home/developer/.conan/data/arm-none-eabi-gcc/9.2019.q4.major-0/library-msp/ga/package/44fcf6b9a7fb86b2586303e3db40189d3b511830/bin/../lib/gcc/arm-none-eabi/9.2.1/../../../../arm-none-eabi/lib/thumb/v7e-m+fp/hard/libc_nano.a(lib_a-strlen.o)
 .bss           0x0000000000000000        0x0 /home/developer/.conan/data/arm-none-eabi-gcc/9.2019.q4.major-0/library-msp/ga/package/44fcf6b9a7fb86b2586303e3db40189d3b511830/bin/../lib/gcc/arm-none-eabi/9.2.1/../../../../arm-none-eabi/lib/thumb/v7e-m+fp/hard/libc_nano.a(lib_a-strlen.o)
 .text          0x0000000000000000        0x0 /home/developer/.conan/data/arm-none-eabi-gcc/9.2019.q4.major-0/library-msp/ga/package/44fcf6b9a7fb86b2586303e3db40189d3b511830/bin/../lib/gcc/arm-none-eabi/9.2.1/../../../../arm-none-eabi/lib/thumb/v7e-m+fp/hard/libc_nano.a(lib_a-strncpy.o)
 .data          0x0000000000000000        0x0 /home/developer/.conan/data/arm-none-eabi-gcc/9.2019.q4.major-0/library-msp/ga/package/44fcf6b9a7fb86b2586303e3db40189d3b511830/bin/../lib/gcc/arm-none-eabi/9.2.1/../../../../arm-none-eabi/lib/thumb/v7e-m+fp/hard/libc_nano.a(lib_a-strncpy.o)
 .bss           0x0000000000000000        0x0 /home/developer/.conan/data/arm-none-eabi-gcc/9.2019.q4.major-0/library-msp/ga/package/44fcf6b9a7fb86b2586303e3db40189d3b511830/bin/../lib/gcc/arm-none-eabi/9.2.1/../../../../arm-none-eabi/lib/thumb/v7e-m+fp/hard/libc_nano.a(lib_a-strncpy.o)
 .text          0x0000000000000000        0x0 /home/developer/.conan/data/arm-none-eabi-gcc/9.2019.q4.major-0/library-msp/ga/package/44fcf6b9a7fb86b2586303e3db40189d3b511830/bin/../lib/gcc/arm-none-eabi/9.2.1/../../../../arm-none-eabi/lib/thumb/v7e-m+fp/hard/libc_nano.a(lib_a-impure.o)
 .data          0x0000000000000000        0x0 /home/developer/.conan/data/arm-none-eabi-gcc/9.2019.q4.major-0/library-msp/ga/package/44fcf6b9a7fb86b2586303e3db40189d3b511830/bin/../lib/gcc/arm-none-eabi/9.2.1/../../../../arm-none-eabi/lib/thumb/v7e-m+fp/hard/libc_nano.a(lib_a-impure.o)
 .bss           0x0000000000000000        0x0 /home/developer/.conan/data/arm-none-eabi-gcc/9.2019.q4.major-0/library-msp/ga/package/44fcf6b9a7fb86b2586303e3db40189d3b511830/bin/../lib/gcc/arm-none-eabi/9.2.1/../../../../arm-none-eabi/lib/thumb/v7e-m+fp/hard/libc_nano.a(lib_a-impure.o)
 .rodata._global_impure_ptr
                0x0000000000000000        0x4 /home/developer/.conan/data/arm-none-eabi-gcc/9.2019.q4.major-0/library-msp/ga/package/44fcf6b9a7fb86b2586303e3db40189d3b511830/bin/../lib/gcc/arm-none-eabi/9.2.1/../../../../arm-none-eabi/lib/thumb/v7e-m+fp/hard/libc_nano.a(lib_a-impure.o)
 .text          0x0000000000000000        0x0 /home/developer/.conan/data/arm-none-eabi-gcc/9.2019.q4.major-0/library-msp/ga/package/44fcf6b9a7fb86b2586303e3db40189d3b511830/bin/../lib/gcc/arm-none-eabi/9.2.1/../../../../arm-none-eabi/lib/thumb/v7e-m+fp/hard/libc_nano.a(lib_a-mlock.o)
 .data          0x0000000000000000        0x0 /home/developer/.conan/data/arm-none-eabi-gcc/9.2019.q4.major-0/library-msp/ga/package/44fcf6b9a7fb86b2586303e3db40189d3b511830/bin/../lib/gcc/arm-none-eabi/9.2.1/../../../../arm-none-eabi/lib/thumb/v7e-m+fp/hard/libc_nano.a(lib_a-mlock.o)
 .bss           0x0000000000000000        0x0 /home/developer/.conan/data/arm-none-eabi-gcc/9.2019.q4.major-0/library-msp/ga/package/44fcf6b9a7fb86b2586303e3db40189d3b511830/bin/../lib/gcc/arm-none-eabi/9.2.1/../../../../arm-none-eabi/lib/thumb/v7e-m+fp/hard/libc_nano.a(lib_a-mlock.o)
 .text          0x0000000000000000        0x0 /home/developer/.conan/data/arm-none-eabi-gcc/9.2019.q4.major-0/library-msp/ga/package/44fcf6b9a7fb86b2586303e3db40189d3b511830/bin/../lib/gcc/arm-none-eabi/9.2.1/../../../../arm-none-eabi/lib/thumb/v7e-m+fp/hard/libc_nano.a(lib_a-reent.o)
 .data          0x0000000000000000        0x0 /home/developer/.conan/data/arm-none-eabi-gcc/9.2019.q4.major-0/library-msp/ga/package/44fcf6b9a7fb86b2586303e3db40189d3b511830/bin/../lib/gcc/arm-none-eabi/9.2.1/../../../../arm-none-eabi/lib/thumb/v7e-m+fp/hard/libc_nano.a(lib_a-reent.o)
 .bss           0x0000000000000000        0x0 /home/developer/.conan/data/arm-none-eabi-gcc/9.2019.q4.major-0/library-msp/ga/package/44fcf6b9a7fb86b2586303e3db40189d3b511830/bin/../lib/gcc/arm-none-eabi/9.2.1/../../../../arm-none-eabi/lib/thumb/v7e-m+fp/hard/libc_nano.a(lib_a-reent.o)
 .text.cleanup_glue
                0x0000000000000000       0x1a /home/developer/.conan/data/arm-none-eabi-gcc/9.2019.q4.major-0/library-msp/ga/package/44fcf6b9a7fb86b2586303e3db40189d3b511830/bin/../lib/gcc/arm-none-eabi/9.2.1/../../../../arm-none-eabi/lib/thumb/v7e-m+fp/hard/libc_nano.a(lib_a-reent.o)
 .text._reclaim_reent
                0x0000000000000000       0xb8 /home/developer/.conan/data/arm-none-eabi-gcc/9.2019.q4.major-0/library-msp/ga/package/44fcf6b9a7fb86b2586303e3db40189d3b511830/bin/../lib/gcc/arm-none-eabi/9.2.1/../../../../arm-none-eabi/lib/thumb/v7e-m+fp/hard/libc_nano.a(lib_a-reent.o)
 .text          0x0000000000000000        0x0 /home/developer/.conan/data/arm-none-eabi-gcc/9.2019.q4.major-0/library-msp/ga/package/44fcf6b9a7fb86b2586303e3db40189d3b511830/bin/../lib/gcc/arm-none-eabi/9.2.1/../../../../arm-none-eabi/lib/thumb/v7e-m+fp/hard/libc_nano.a(lib_a-lock.o)
 .data          0x0000000000000000        0x0 /home/developer/.conan/data/arm-none-eabi-gcc/9.2019.q4.major-0/library-msp/ga/package/44fcf6b9a7fb86b2586303e3db40189d3b511830/bin/../lib/gcc/arm-none-eabi/9.2.1/../../../../arm-none-eabi/lib/thumb/v7e-m+fp/hard/libc_nano.a(lib_a-lock.o)
 .bss           0x0000000000000000        0x0 /home/developer/.conan/data/arm-none-eabi-gcc/9.2019.q4.major-0/library-msp/ga/package/44fcf6b9a7fb86b2586303e3db40189d3b511830/bin/../lib/gcc/arm-none-eabi/9.2.1/../../../../arm-none-eabi/lib/thumb/v7e-m+fp/hard/libc_nano.a(lib_a-lock.o)
 .text.__retarget_lock_init
                0x0000000000000000        0x2 /home/developer/.conan/data/arm-none-eabi-gcc/9.2019.q4.major-0/library-msp/ga/package/44fcf6b9a7fb86b2586303e3db40189d3b511830/bin/../lib/gcc/arm-none-eabi/9.2.1/../../../../arm-none-eabi/lib/thumb/v7e-m+fp/hard/libc_nano.a(lib_a-lock.o)
 .text.__retarget_lock_init_recursive
                0x0000000000000000        0x2 /home/developer/.conan/data/arm-none-eabi-gcc/9.2019.q4.major-0/library-msp/ga/package/44fcf6b9a7fb86b2586303e3db40189d3b511830/bin/../lib/gcc/arm-none-eabi/9.2.1/../../../../arm-none-eabi/lib/thumb/v7e-m+fp/hard/libc_nano.a(lib_a-lock.o)
 .text.__retarget_lock_close
                0x0000000000000000        0x2 /home/developer/.conan/data/arm-none-eabi-gcc/9.2019.q4.major-0/library-msp/ga/package/44fcf6b9a7fb86b2586303e3db40189d3b511830/bin/../lib/gcc/arm-none-eabi/9.2.1/../../../../arm-none-eabi/lib/thumb/v7e-m+fp/hard/libc_nano.a(lib_a-lock.o)
 .text.__retarget_lock_close_recursive
                0x0000000000000000        0x2 /home/developer/.conan/data/arm-none-eabi-gcc/9.2019.q4.major-0/library-msp/ga/package/44fcf6b9a7fb86b2586303e3db40189d3b511830/bin/../lib/gcc/arm-none-eabi/9.2.1/../../../../arm-none-eabi/lib/thumb/v7e-m+fp/hard/libc_nano.a(lib_a-lock.o)
 .text.__retarget_lock_acquire
                0x0000000000000000        0x2 /home/developer/.conan/data/arm-none-eabi-gcc/9.2019.q4.major-0/library-msp/ga/package/44fcf6b9a7fb86b2586303e3db40189d3b511830/bin/../lib/gcc/arm-none-eabi/9.2.1/../../../../arm-none-eabi/lib/thumb/v7e-m+fp/hard/libc_nano.a(lib_a-lock.o)
 .text.__retarget_lock_try_acquire
                0x0000000000000000        0x4 /home/developer/.conan/data/arm-none-eabi-gcc/9.2019.q4.major-0/library-msp/ga/package/44fcf6b9a7fb86b2586303e3db40189d3b511830/bin/../lib/gcc/arm-none-eabi/9.2.1/../../../../arm-none-eabi/lib/thumb/v7e-m+fp/hard/libc_nano.a(lib_a-lock.o)
 .text.__retarget_lock_try_acquire_recursive
                0x0000000000000000        0x4 /home/developer/.conan/data/arm-none-eabi-gcc/9.2019.q4.major-0/library-msp/ga/package/44fcf6b9a7fb86b2586303e3db40189d3b511830/bin/../lib/gcc/arm-none-eabi/9.2.1/../../../../arm-none-eabi/lib/thumb/v7e-m+fp/hard/libc_nano.a(lib_a-lock.o)
 .text.__retarget_lock_release
                0x0000000000000000        0x2 /home/developer/.conan/data/arm-none-eabi-gcc/9.2019.q4.major-0/library-msp/ga/package/44fcf6b9a7fb86b2586303e3db40189d3b511830/bin/../lib/gcc/arm-none-eabi/9.2.1/../../../../arm-none-eabi/lib/thumb/v7e-m+fp/hard/libc_nano.a(lib_a-lock.o)
 .text          0x0000000000000000        0x0 /home/developer/.conan/data/arm-none-eabi-gcc/9.2019.q4.major-0/library-msp/ga/package/44fcf6b9a7fb86b2586303e3db40189d3b511830/bin/../lib/gcc/arm-none-eabi/9.2.1/../../../../arm-none-eabi/lib/thumb/v7e-m+fp/hard/libnosys.a(sbrk.o)
 .data          0x0000000000000000        0x0 /home/developer/.conan/data/arm-none-eabi-gcc/9.2019.q4.major-0/library-msp/ga/package/44fcf6b9a7fb86b2586303e3db40189d3b511830/bin/../lib/gcc/arm-none-eabi/9.2.1/../../../../arm-none-eabi/lib/thumb/v7e-m+fp/hard/libnosys.a(sbrk.o)
 .bss           0x0000000000000000        0x0 /home/developer/.conan/data/arm-none-eabi-gcc/9.2019.q4.major-0/library-msp/ga/package/44fcf6b9a7fb86b2586303e3db40189d3b511830/bin/../lib/gcc/arm-none-eabi/9.2.1/../../../../arm-none-eabi/lib/thumb/v7e-m+fp/hard/libnosys.a(sbrk.o)

Memory Configuration

Name             Origin             Length             Attributes
FLASH            0x0000000000000000 0x00000000000affa8 xr
FLASH_CCFG       0x00000000000affa8 0x0000000000000058 r
SRAM             0x0000000020000000 0x0000000000024000 xrw
GPRAM            0x0000000011000000 0x0000000000002000 xrw
LOG_DATA         0x0000000090000000 0x0000000000040000 r
LOG_PTR          0x0000000094000008 0x0000000000040000 r
*default*        0x0000000000000000 0xffffffffffffffff

Linker script and memory map

LOAD spiffsexternal.obj
LOAD main_nortos.obj
LOAD ti_devices_config.obj
LOAD ti_drivers_config.obj
                0x0000000000000400                STACKSIZE = 0x400
                0x0000000000004000                HEAPSIZE = 0x4000
                0x0000000000000000                PROVIDE (_resetVecs_base_address = DEFINED (_resetVecs_base_address)?_resetVecs_base_address:0x0)

.resetVecs      0x0000000000000000       0x40
 *(.resetVecs)
 .resetVecs     0x0000000000000000       0x40 /project/staging/core_examples/cc13xx_cc26xx_sdk/kernel/nortos/lib/gcc/m4f/nortos_cc26x2x7.a(startup_cc13x2_cc26x2_gcc.c.obj)

.ramVecs        0x0000000020000000       0xd8
 *(.ramVecs)
 .ramVecs       0x0000000020000000       0xd8 /project/staging/core_examples/cc13xx_cc26xx_sdk/source/ti/devices/cc13x2x7_cc26x2x7/driverlib/bin/gcc/driverlib.lib(interrupt.c.obj)
                0x0000000020001800                UDMACC26XX_CONFIG_BASE = 0x20001800
                0x0000000020001810                DMA_UART0_RX_CONTROL_TABLE_ENTRY_ADDRESS = (UDMACC26XX_CONFIG_BASE + 0x10)
                0x0000000020001820                DMA_UART0_TX_CONTROL_TABLE_ENTRY_ADDRESS = (UDMACC26XX_CONFIG_BASE + 0x20)
                0x0000000020001830                DMA_SPI0_RX_CONTROL_TABLE_ENTRY_ADDRESS = (UDMACC26XX_CONFIG_BASE + 0x30)
                0x0000000020001840                DMA_SPI0_TX_CONTROL_TABLE_ENTRY_ADDRESS = (UDMACC26XX_CONFIG_BASE + 0x40)
                0x0000000020001850                DMA_UART1_RX_CONTROL_TABLE_ENTRY_ADDRESS = (UDMACC26XX_CONFIG_BASE + 0x50)
                0x0000000020001860                DMA_UART1_TX_CONTROL_TABLE_ENTRY_ADDRESS = (UDMACC26XX_CONFIG_BASE + 0x60)
                0x0000000020001870                DMA_ADC_PRI_CONTROL_TABLE_ENTRY_ADDRESS = (UDMACC26XX_CONFIG_BASE + 0x70)
                0x0000000020001890                DMA_GPT0A_PRI_CONTROL_TABLE_ENTRY_ADDRESS = (UDMACC26XX_CONFIG_BASE + 0x90)
                0x0000000020001900                DMA_SPI1_RX_CONTROL_TABLE_ENTRY_ADDRESS = (UDMACC26XX_CONFIG_BASE + 0x100)
                0x0000000020001910                DMA_SPI1_TX_CONTROL_TABLE_ENTRY_ADDRESS = (UDMACC26XX_CONFIG_BASE + 0x110)
                0x0000000020001a10                DMA_UART0_RX_ALT_CONTROL_TABLE_ENTRY_ADDRESS = (UDMACC26XX_CONFIG_BASE + 0x210)
                0x0000000020001a20                DMA_UART0_TX_ALT_CONTROL_TABLE_ENTRY_ADDRESS = (UDMACC26XX_CONFIG_BASE + 0x220)
                0x0000000020001a30                DMA_SPI0_RX_ALT_CONTROL_TABLE_ENTRY_ADDRESS = (UDMACC26XX_CONFIG_BASE + 0x230)
                0x0000000020001a40                DMA_SPI0_TX_ALT_CONTROL_TABLE_ENTRY_ADDRESS = (UDMACC26XX_CONFIG_BASE + 0x240)
                0x0000000020001a50                DMA_UART1_RX_ALT_CONTROL_TABLE_ENTRY_ADDRESS = (UDMACC26XX_CONFIG_BASE + 0x250)
                0x0000000020001a60                DMA_UART1_TX_ALT_CONTROL_TABLE_ENTRY_ADDRESS = (UDMACC26XX_CONFIG_BASE + 0x260)
                0x0000000020001a70                DMA_ADC_ALT_CONTROL_TABLE_ENTRY_ADDRESS = (UDMACC26XX_CONFIG_BASE + 0x270)
                0x0000000020001a90                DMA_GPT0A_ALT_CONTROL_TABLE_ENTRY_ADDRESS = (UDMACC26XX_CONFIG_BASE + 0x290)
                0x0000000020001b00                DMA_SPI1_RX_ALT_CONTROL_TABLE_ENTRY_ADDRESS = (UDMACC26XX_CONFIG_BASE + 0x300)
                0x0000000020001b10                DMA_SPI1_TX_ALT_CONTROL_TABLE_ENTRY_ADDRESS = (UDMACC26XX_CONFIG_BASE + 0x310)
                0x0000000000000000                UDMACC26XX_uart0RxControlTableEntry_is_placed = 0x0

.dmaUart0RxControlTableEntry
 *(.dmaUart0RxControlTableEntry)
                0x0000000000000000                UDMACC26XX_uart0TxControlTableEntry_is_placed = 0x0

.dmaUart0TxControlTableEntry
 *(.dmaUart0TxControlTableEntry)
                0x0000000000000000                UDMACC26XX_dmaSpi0RxControlTableEntry_is_placed = 0x0

.dmaSpi0RxControlTableEntry
                0x0000000020001830       0x10
 *(.dmaSpi0RxControlTableEntry)
 .dmaSpi0RxControlTableEntry
                0x0000000020001830       0x10 ti_drivers_config.obj
                0x0000000000000000                UDMACC26XX_dmaSpi0TxControlTableEntry_is_placed = 0x0

.dmaSpi0TxControlTableEntry
                0x0000000020001840       0x10
 *(.dmaSpi0TxControlTableEntry)
 .dmaSpi0TxControlTableEntry
                0x0000000020001840       0x10 ti_drivers_config.obj
                0x0000000000000000                UDMACC26XX_uart1RxControlTableEntry_is_placed = 0x0

.dmaUart1RxControlTableEntry
                0x0000000020001850       0x10
 *(.dmaUart1RxControlTableEntry)
 .dmaUart1RxControlTableEntry
                0x0000000020001850       0x10 ti_drivers_config.obj
                0x0000000000000000                UDMACC26XX_uart1TxControlTableEntry_is_placed = 0x0

.dmaUart1TxControlTableEntry
                0x0000000020001860       0x10
 *(.dmaUart1TxControlTableEntry)
 .dmaUart1TxControlTableEntry
                0x0000000020001860       0x10 ti_drivers_config.obj
                0x0000000000000000                UDMACC26XX_dmaADCPriControlTableEntry_is_placed = 0x0

.dmaADCPriControlTableEntry
 *(.dmaADCPriControlTableEntry)
                0x0000000000000000                UDMACC26XX_dmaGPT0APriControlTableEntry_is_placed = 0x0

.dmaGPT0APriControlTableEntry
 *(.dmaGPT0APriControlTableEntry)
                0x0000000000000000                UDMACC26XX_dmaSpi1RxControlTableEntry_is_placed = 0x0

.dmaSpi1RxControlTableEntry
 *(.dmaSpi1RxControlTableEntry)
                0x0000000000000000                UDMACC26XX_dmaSpi1TxControlTableEntry_is_placed = 0x0

.dmaSpi1TxControlTableEntry
 *(.dmaSpi1TxControlTableEntry)
                0x0000000000000000                UDMACC26XX_uart0RxAltControlTableEntry_is_placed = 0x0

.dmaUart0RxAltControlTableEntry
 *(.dmaUart0RxAltControlTableEntry)
                0x0000000000000000                UDMACC26XX_uart0TxAltControlTableEntry_is_placed = 0x0

.dmaUart0TxAltControlTableEntry
 *(.dmaUart0TxAltControlTableEntry)
                0x0000000000000000                UDMACC26XX_dmaSpi0RxAltControlTableEntry_is_placed = 0x0

.dmaSpi0RxAltControlTableEntry
                0x0000000020001a30       0x10
 *(.dmaSpi0RxAltControlTableEntry)
 .dmaSpi0RxAltControlTableEntry
                0x0000000020001a30       0x10 ti_drivers_config.obj
                0x0000000000000000                UDMACC26XX_dmaSpi0TxAltControlTableEntry_is_placed = 0x0

.dmaSpi0TxAltControlTableEntry
                0x0000000020001a40       0x10
 *(.dmaSpi0TxAltControlTableEntry)
 .dmaSpi0TxAltControlTableEntry
                0x0000000020001a40       0x10 ti_drivers_config.obj
                0x0000000000000000                UDMACC26XX_uart1RxAltControlTableEntry_is_placed = 0x0

.dmaUart1RxAltControlTableEntry
 *(.dmaUart1RxAltControlTableEntry)
                0x0000000000000000                UDMACC26XX_uart1TxAltControlTableEntry_is_placed = 0x0

.dmaUart1TxAltControlTableEntry
 *(.dmaUart1TxAltControlTableEntry)
                0x0000000000000000                UDMACC26XX_dmaADCAltControlTableEntry_is_placed = 0x0

.dmaADCAltControlTableEntry
 *(.dmaADCAltControlTableEntry)
                0x0000000000000000                UDMACC26XX_dmaGPT0AAltControlTableEntry_is_placed = 0x0

.dmaGPT0AAltControlTableEntry
 *(.dmaGPT0AAltControlTableEntry)
                0x0000000000000000                UDMACC26XX_dmaSpi1RxAltControlTableEntry_is_placed = 0x0

.dmaSpi1RxAltControlTableEntry
 *(.dmaSpi1RxAltControlTableEntry)
                0x0000000000000000                UDMACC26XX_dmaSpi1TxAltControlTableEntry_is_placed = 0x0

.dmaSpi1TxAltControlTableEntry
 *(.dmaSpi1TxAltControlTableEntry)

.text           0x0000000000000040     0xbed0
 CREATE_OBJECT_SYMBOLS
 *(.text)
 .text          0x0000000000000040      0x254 /home/developer/.conan/data/arm-none-eabi-gcc/9.2019.q4.major-0/library-msp/ga/package/44fcf6b9a7fb86b2586303e3db40189d3b511830/bin/../lib/gcc/arm-none-eabi/9.2.1/thumb/v7e-m+fp/hard/libgcc.a(_arm_muldf3.o)
                0x0000000000000040                __aeabi_dmul
                0x0000000000000040                __muldf3
 .text          0x0000000000000294      0x378 /home/developer/.conan/data/arm-none-eabi-gcc/9.2019.q4.major-0/library-msp/ga/package/44fcf6b9a7fb86b2586303e3db40189d3b511830/bin/../lib/gcc/arm-none-eabi/9.2.1/thumb/v7e-m+fp/hard/libgcc.a(_arm_addsubdf3.o)
                0x0000000000000294                __aeabi_drsub
                0x000000000000029c                __aeabi_dsub
                0x000000000000029c                __subdf3
                0x00000000000002a0                __adddf3
                0x00000000000002a0                __aeabi_dadd
                0x0000000000000518                __aeabi_ui2d
                0x0000000000000518                __floatunsidf
                0x0000000000000538                __floatsidf
                0x0000000000000538                __aeabi_i2d
                0x000000000000055c                __extendsfdf2
                0x000000000000055c                __aeabi_f2d
                0x00000000000005a0                __aeabi_ul2d
                0x00000000000005a0                __floatundidf
                0x00000000000005b0                __floatdidf
                0x00000000000005b0                __aeabi_l2d
 .text          0x000000000000060c      0x110 /home/developer/.conan/data/arm-none-eabi-gcc/9.2019.q4.major-0/library-msp/ga/package/44fcf6b9a7fb86b2586303e3db40189d3b511830/bin/../lib/gcc/arm-none-eabi/9.2.1/thumb/v7e-m+fp/hard/libgcc.a(_arm_cmpdf2.o)
                0x000000000000060c                __gtdf2
                0x000000000000060c                __gedf2
                0x0000000000000614                __ltdf2
                0x0000000000000614                __ledf2
                0x000000000000061c                __cmpdf2
                0x000000000000061c                __eqdf2
                0x000000000000061c                __nedf2
                0x0000000000000698                __aeabi_cdrcmple
                0x00000000000006a8                __aeabi_cdcmple
                0x00000000000006a8                __aeabi_cdcmpeq
                0x00000000000006b8                __aeabi_dcmpeq
                0x00000000000006cc                __aeabi_dcmplt
                0x00000000000006e0                __aeabi_dcmple
                0x00000000000006f4                __aeabi_dcmpge
                0x0000000000000708                __aeabi_dcmpgt
 .text          0x000000000000071c       0x50 /home/developer/.conan/data/arm-none-eabi-gcc/9.2019.q4.major-0/library-msp/ga/package/44fcf6b9a7fb86b2586303e3db40189d3b511830/bin/../lib/gcc/arm-none-eabi/9.2.1/thumb/v7e-m+fp/hard/libgcc.a(_arm_fixdfsi.o)
                0x000000000000071c                __fixdfsi
                0x000000000000071c                __aeabi_d2iz
 .text          0x000000000000076c       0x40 /home/developer/.conan/data/arm-none-eabi-gcc/9.2019.q4.major-0/library-msp/ga/package/44fcf6b9a7fb86b2586303e3db40189d3b511830/bin/../lib/gcc/arm-none-eabi/9.2.1/thumb/v7e-m+fp/hard/libgcc.a(_arm_fixunsdfsi.o)
                0x000000000000076c                __fixunsdfsi
                0x000000000000076c                __aeabi_d2uiz
 .text          0x00000000000007ac       0x30 /home/developer/.conan/data/arm-none-eabi-gcc/9.2019.q4.major-0/library-msp/ga/package/44fcf6b9a7fb86b2586303e3db40189d3b511830/bin/../lib/gcc/arm-none-eabi/9.2.1/thumb/v7e-m+fp/hard/libgcc.a(_aeabi_uldivmod.o)
                0x00000000000007ac                __aeabi_uldivmod
 .text          0x00000000000007dc      0x2c4 /home/developer/.conan/data/arm-none-eabi-gcc/9.2019.q4.major-0/library-msp/ga/package/44fcf6b9a7fb86b2586303e3db40189d3b511830/bin/../lib/gcc/arm-none-eabi/9.2.1/thumb/v7e-m+fp/hard/libgcc.a(_udivmoddi4.o)
                0x00000000000007dc                __udivmoddi4
 .text          0x0000000000000aa0        0x4 /home/developer/.conan/data/arm-none-eabi-gcc/9.2019.q4.major-0/library-msp/ga/package/44fcf6b9a7fb86b2586303e3db40189d3b511830/bin/../lib/gcc/arm-none-eabi/9.2.1/thumb/v7e-m+fp/hard/libgcc.a(_dvmd_tls.o)
                0x0000000000000aa0                __aeabi_ldiv0
                0x0000000000000aa0                __aeabi_idiv0
 .text          0x0000000000000aa4       0x14 /home/developer/.conan/data/arm-none-eabi-gcc/9.2019.q4.major-0/library-msp/ga/package/44fcf6b9a7fb86b2586303e3db40189d3b511830/bin/../lib/gcc/arm-none-eabi/9.2.1/../../../../arm-none-eabi/lib/thumb/v7e-m+fp/hard/libc_nano.a(lib_a-strcmp.o)
                0x0000000000000aa4                strcmp
 .text          0x0000000000000ab8       0x10 /home/developer/.conan/data/arm-none-eabi-gcc/9.2019.q4.major-0/library-msp/ga/package/44fcf6b9a7fb86b2586303e3db40189d3b511830/bin/../lib/gcc/arm-none-eabi/9.2.1/../../../../arm-none-eabi/lib/thumb/v7e-m+fp/hard/libc_nano.a(lib_a-strlen.o)
                0x0000000000000ab8                strlen
 *(.text.*)
 .text.mainThread
                0x0000000000000ac8      0x234 spiffsexternal.obj
                0x0000000000000ac8                mainThread
 .text.startup.main
                0x0000000000000cfc       0x14 main_nortos.obj
                0x0000000000000cfc                main
 .text.Board_shutDownExtFlash
                0x0000000000000d10       0xc0 ti_drivers_config.obj
                0x0000000000000d10                Board_shutDownExtFlash
 .text.Board_initHook
                0x0000000000000dd0        0x4 ti_drivers_config.obj
                0x0000000000000dd0                Board_initHook
 .text.Board_init
                0x0000000000000dd4       0x14 ti_drivers_config.obj
                0x0000000000000dd4                Board_init
 .text.spiffs_stat_pix
                0x0000000000000de8       0xb8 /project/staging/core_examples/cc13xx_cc26xx_sdk/source/third_party/spiffs/lib/gcc/m4f/spiffs_cc26xx.a(spiffs_hydrogen.c.obj)
 .text.spiffs_fflush_cache
                0x0000000000000ea0       0xb0 /project/staging/core_examples/cc13xx_cc26xx_sdk/source/third_party/spiffs/lib/gcc/m4f/spiffs_cc26xx.a(spiffs_hydrogen.c.obj)
 .text.SPIFFS_format
                0x0000000000000f50       0x70 /project/staging/core_examples/cc13xx_cc26xx_sdk/source/third_party/spiffs/lib/gcc/m4f/spiffs_cc26xx.a(spiffs_hydrogen.c.obj)
                0x0000000000000f50                SPIFFS_format
 .text.SPIFFS_mount
                0x0000000000000fc0      0x12c /project/staging/core_examples/cc13xx_cc26xx_sdk/source/third_party/spiffs/lib/gcc/m4f/spiffs_cc26xx.a(spiffs_hydrogen.c.obj)
                0x0000000000000fc0                SPIFFS_mount
 .text.SPIFFS_unmount
                0x00000000000010ec       0x64 /project/staging/core_examples/cc13xx_cc26xx_sdk/source/third_party/spiffs/lib/gcc/m4f/spiffs_cc26xx.a(spiffs_hydrogen.c.obj)
                0x00000000000010ec                SPIFFS_unmount
 .text.SPIFFS_open
                0x0000000000001150      0x14c /project/staging/core_examples/cc13xx_cc26xx_sdk/source/third_party/spiffs/lib/gcc/m4f/spiffs_cc26xx.a(spiffs_hydrogen.c.obj)
                0x0000000000001150                SPIFFS_open
 .text.SPIFFS_read
                0x000000000000129c      0x104 /project/staging/core_examples/cc13xx_cc26xx_sdk/source/third_party/spiffs/lib/gcc/m4f/spiffs_cc26xx.a(spiffs_hydrogen.c.obj)
                0x000000000000129c                SPIFFS_read
 .text.SPIFFS_write_delegate
                0x00000000000013a0      0x32c /project/staging/core_examples/cc13xx_cc26xx_sdk/source/third_party/spiffs/lib/gcc/m4f/spiffs_cc26xx.a(spiffs_hydrogen.c.obj)
                0x00000000000013a0                SPIFFS_write_delegate
 .text.SPIFFS_lseek
                0x00000000000016cc      0x114 /project/staging/core_examples/cc13xx_cc26xx_sdk/source/third_party/spiffs/lib/gcc/m4f/spiffs_cc26xx.a(spiffs_hydrogen.c.obj)
                0x00000000000016cc                SPIFFS_lseek
 .text.SPIFFS_fremove
                0x00000000000017e0       0x80 /project/staging/core_examples/cc13xx_cc26xx_sdk/source/third_party/spiffs/lib/gcc/m4f/spiffs_cc26xx.a(spiffs_hydrogen.c.obj)
                0x00000000000017e0                SPIFFS_fremove
 .text.SPIFFS_close
                0x0000000000001860      0x110 /project/staging/core_examples/cc13xx_cc26xx_sdk/source/third_party/spiffs/lib/gcc/m4f/spiffs_cc26xx.a(spiffs_hydrogen.c.obj)
                0x0000000000001860                SPIFFS_close
 .text.SPIFFS_eof
                0x0000000000001970       0x7c /project/staging/core_examples/cc13xx_cc26xx_sdk/source/third_party/spiffs/lib/gcc/m4f/spiffs_cc26xx.a(spiffs_hydrogen.c.obj)
                0x0000000000001970                SPIFFS_eof
 .text.SPIFFS_write
                0x00000000000019ec      0x1e0 /project/staging/core_examples/cc13xx_cc26xx_sdk/source/third_party/spiffs/lib/gcc/m4f/spiffs_cc26xx.a(spiffs_hydrogen.c.obj)
                0x00000000000019ec                SPIFFS_write
 .text.spiffs_obj_lu_find_free_obj_id_bitmap_v
                0x0000000000001bcc       0xc0 /project/staging/core_examples/cc13xx_cc26xx_sdk/source/third_party/spiffs/lib/gcc/m4f/spiffs_cc26xx.a(spiffs_nucleus.c.obj)
 .text.spiffs_update_ix_map.isra.0
                0x0000000000001c8c      0x11c /project/staging/core_examples/cc13xx_cc26xx_sdk/source/third_party/spiffs/lib/gcc/m4f/spiffs_cc26xx.a(spiffs_nucleus.c.obj)
 .text.spiffs_page_data_check.isra.0
                0x0000000000001da8       0xbc /project/staging/core_examples/cc13xx_cc26xx_sdk/source/third_party/spiffs/lib/gcc/m4f/spiffs_cc26xx.a(spiffs_nucleus.c.obj)
 .text.spiffs_page_index_check.isra.0
                0x0000000000001e64       0xc4 /project/staging/core_examples/cc13xx_cc26xx_sdk/source/third_party/spiffs/lib/gcc/m4f/spiffs_cc26xx.a(spiffs_nucleus.c.obj)
 .text.spiffs_obj_lu_find_entry_visitor.constprop.0
                0x0000000000001f28      0x208 /project/staging/core_examples/cc13xx_cc26xx_sdk/source/third_party/spiffs/lib/gcc/m4f/spiffs_cc26xx.a(spiffs_nucleus.c.obj)
 .text.spiffs_erase_block
                0x0000000000002130       0xe0 /project/staging/core_examples/cc13xx_cc26xx_sdk/source/third_party/spiffs/lib/gcc/m4f/spiffs_cc26xx.a(spiffs_nucleus.c.obj)
                0x0000000000002130                spiffs_erase_block
 .text.spiffs_obj_lu_scan
                0x0000000000002210      0x2b8 /project/staging/core_examples/cc13xx_cc26xx_sdk/source/third_party/spiffs/lib/gcc/m4f/spiffs_cc26xx.a(spiffs_nucleus.c.obj)
                0x0000000000002210                spiffs_obj_lu_scan
 .text.spiffs_obj_lu_find_free
                0x00000000000024c8       0x88 /project/staging/core_examples/cc13xx_cc26xx_sdk/source/third_party/spiffs/lib/gcc/m4f/spiffs_cc26xx.a(spiffs_nucleus.c.obj)
                0x00000000000024c8                spiffs_obj_lu_find_free
 .text.spiffs_obj_lu_find_id_and_span
                0x0000000000002550      0x2a0 /project/staging/core_examples/cc13xx_cc26xx_sdk/source/third_party/spiffs/lib/gcc/m4f/spiffs_cc26xx.a(spiffs_nucleus.c.obj)
                0x0000000000002550                spiffs_obj_lu_find_id_and_span
 .text.spiffs_page_allocate_data
                0x00000000000027f0      0x1f4 /project/staging/core_examples/cc13xx_cc26xx_sdk/source/third_party/spiffs/lib/gcc/m4f/spiffs_cc26xx.a(spiffs_nucleus.c.obj)
                0x00000000000027f0                spiffs_page_allocate_data
 .text.spiffs_page_delete
                0x00000000000029e4       0xb4 /project/staging/core_examples/cc13xx_cc26xx_sdk/source/third_party/spiffs/lib/gcc/m4f/spiffs_cc26xx.a(spiffs_nucleus.c.obj)
                0x00000000000029e4                spiffs_page_delete
 .text.spiffs_page_move
                0x0000000000002a98      0x1a4 /project/staging/core_examples/cc13xx_cc26xx_sdk/source/third_party/spiffs/lib/gcc/m4f/spiffs_cc26xx.a(spiffs_nucleus.c.obj)
                0x0000000000002a98                spiffs_page_move
 .text.spiffs_cb_object_event
                0x0000000000002c3c      0x17c /project/staging/core_examples/cc13xx_cc26xx_sdk/source/third_party/spiffs/lib/gcc/m4f/spiffs_cc26xx.a(spiffs_nucleus.c.obj)
                0x0000000000002c3c                spiffs_cb_object_event
 .text.spiffs_object_create
                0x0000000000002db8      0x164 /project/staging/core_examples/cc13xx_cc26xx_sdk/source/third_party/spiffs/lib/gcc/m4f/spiffs_cc26xx.a(spiffs_nucleus.c.obj)
                0x0000000000002db8                spiffs_object_create
 .text.spiffs_object_update_index_hdr
                0x0000000000002f1c      0x100 /project/staging/core_examples/cc13xx_cc26xx_sdk/source/third_party/spiffs/lib/gcc/m4f/spiffs_cc26xx.a(spiffs_nucleus.c.obj)
                0x0000000000002f1c                spiffs_object_update_index_hdr
 .text.spiffs_object_open_by_page
                0x000000000000301c       0xe4 /project/staging/core_examples/cc13xx_cc26xx_sdk/source/third_party/spiffs/lib/gcc/m4f/spiffs_cc26xx.a(spiffs_nucleus.c.obj)
                0x000000000000301c                spiffs_object_open_by_page
 .text.spiffs_object_append
                0x0000000000003100      0x64c /project/staging/core_examples/cc13xx_cc26xx_sdk/source/third_party/spiffs/lib/gcc/m4f/spiffs_cc26xx.a(spiffs_nucleus.c.obj)
                0x0000000000003100                spiffs_object_append
 .text.spiffs_object_modify
                0x000000000000374c      0x65c /project/staging/core_examples/cc13xx_cc26xx_sdk/source/third_party/spiffs/lib/gcc/m4f/spiffs_cc26xx.a(spiffs_nucleus.c.obj)
                0x000000000000374c                spiffs_object_modify
 .text.spiffs_object_find_object_index_header_by_name
                0x0000000000003da8      0x250 /project/staging/core_examples/cc13xx_cc26xx_sdk/source/third_party/spiffs/lib/gcc/m4f/spiffs_cc26xx.a(spiffs_nucleus.c.obj)
                0x0000000000003da8                spiffs_object_find_object_index_header_by_name
 .text.spiffs_object_truncate
                0x0000000000003ff8      0x668 /project/staging/core_examples/cc13xx_cc26xx_sdk/source/third_party/spiffs/lib/gcc/m4f/spiffs_cc26xx.a(spiffs_nucleus.c.obj)
                0x0000000000003ff8                spiffs_object_truncate
 .text.spiffs_object_read
                0x0000000000004660      0x2d4 /project/staging/core_examples/cc13xx_cc26xx_sdk/source/third_party/spiffs/lib/gcc/m4f/spiffs_cc26xx.a(spiffs_nucleus.c.obj)
                0x0000000000004660                spiffs_object_read
 .text.spiffs_obj_lu_find_free_obj_id
                0x0000000000004934      0x554 /project/staging/core_examples/cc13xx_cc26xx_sdk/source/third_party/spiffs/lib/gcc/m4f/spiffs_cc26xx.a(spiffs_nucleus.c.obj)
                0x0000000000004934                spiffs_obj_lu_find_free_obj_id
 .text.spiffs_fd_find_new
                0x0000000000004e88      0x148 /project/staging/core_examples/cc13xx_cc26xx_sdk/source/third_party/spiffs/lib/gcc/m4f/spiffs_cc26xx.a(spiffs_nucleus.c.obj)
                0x0000000000004e88                spiffs_fd_find_new
 .text.spiffs_fd_return
                0x0000000000004fd0       0x38 /project/staging/core_examples/cc13xx_cc26xx_sdk/source/third_party/spiffs/lib/gcc/m4f/spiffs_cc26xx.a(spiffs_nucleus.c.obj)
                0x0000000000004fd0                spiffs_fd_return
 .text.spiffs_fd_get
                0x0000000000005008       0x3c /project/staging/core_examples/cc13xx_cc26xx_sdk/source/third_party/spiffs/lib/gcc/m4f/spiffs_cc26xx.a(spiffs_nucleus.c.obj)
                0x0000000000005008                spiffs_fd_get
 .text.spiffs_hal_write
                0x0000000000005044       0x28 /project/staging/core_examples/cc13xx_cc26xx_sdk/source/third_party/spiffs/lib/gcc/m4f/spiffs_cc26xx.a(SPIFFSNVS.c.obj)
 .text.spiffs_hal_read
                0x000000000000506c       0x20 /project/staging/core_examples/cc13xx_cc26xx_sdk/source/third_party/spiffs/lib/gcc/m4f/spiffs_cc26xx.a(SPIFFSNVS.c.obj)
 .text.spiffs_hal_erase
                0x000000000000508c       0x18 /project/staging/core_examples/cc13xx_cc26xx_sdk/source/third_party/spiffs/lib/gcc/m4f/spiffs_cc26xx.a(SPIFFSNVS.c.obj)
 .text.SPIFFSNVS_close
                0x00000000000050a4        0x8 /project/staging/core_examples/cc13xx_cc26xx_sdk/source/third_party/spiffs/lib/gcc/m4f/spiffs_cc26xx.a(SPIFFSNVS.c.obj)
                0x00000000000050a4                SPIFFSNVS_close
 .text.SPIFFSNVS_config
                0x00000000000050ac       0xc0 /project/staging/core_examples/cc13xx_cc26xx_sdk/source/third_party/spiffs/lib/gcc/m4f/spiffs_cc26xx.a(SPIFFSNVS.c.obj)
                0x00000000000050ac                SPIFFSNVS_config
 .text.SPIFFSNVS_lock
                0x000000000000516c       0x1c /project/staging/core_examples/cc13xx_cc26xx_sdk/source/third_party/spiffs/lib/gcc/m4f/spiffs_cc26xx.a(SPIFFSNVS.c.obj)
                0x000000000000516c                SPIFFSNVS_lock
 .text.SPIFFSNVS_unlock
                0x0000000000005188       0x18 /project/staging/core_examples/cc13xx_cc26xx_sdk/source/third_party/spiffs/lib/gcc/m4f/spiffs_cc26xx.a(SPIFFSNVS.c.obj)
                0x0000000000005188                SPIFFSNVS_unlock
 .text.spiffs_cache_page_remove_oldest.constprop.0
                0x00000000000051a0       0xb0 /project/staging/core_examples/cc13xx_cc26xx_sdk/source/third_party/spiffs/lib/gcc/m4f/spiffs_cc26xx.a(spiffs_cache.c.obj)
 .text.spiffs_cache_drop_page
                0x0000000000005250       0x64 /project/staging/core_examples/cc13xx_cc26xx_sdk/source/third_party/spiffs/lib/gcc/m4f/spiffs_cc26xx.a(spiffs_cache.c.obj)
                0x0000000000005250                spiffs_cache_drop_page
 .text.spiffs_phys_rd
                0x00000000000052b4      0x190 /project/staging/core_examples/cc13xx_cc26xx_sdk/source/third_party/spiffs/lib/gcc/m4f/spiffs_cc26xx.a(spiffs_cache.c.obj)
                0x00000000000052b4                spiffs_phys_rd
 .text.spiffs_phys_wr
                0x0000000000005444      0x100 /project/staging/core_examples/cc13xx_cc26xx_sdk/source/third_party/spiffs/lib/gcc/m4f/spiffs_cc26xx.a(spiffs_cache.c.obj)
                0x0000000000005444                spiffs_phys_wr
 .text.spiffs_cache_page_get_by_fd
                0x0000000000005544       0x50 /project/staging/core_examples/cc13xx_cc26xx_sdk/source/third_party/spiffs/lib/gcc/m4f/spiffs_cc26xx.a(spiffs_cache.c.obj)
                0x0000000000005544                spiffs_cache_page_get_by_fd
 .text.spiffs_cache_page_allocate_by_fd
                0x0000000000005594       0x68 /project/staging/core_examples/cc13xx_cc26xx_sdk/source/third_party/spiffs/lib/gcc/m4f/spiffs_cc26xx.a(spiffs_cache.c.obj)
                0x0000000000005594                spiffs_cache_page_allocate_by_fd
 .text.spiffs_cache_fd_release
                0x00000000000055fc       0x54 /project/staging/core_examples/cc13xx_cc26xx_sdk/source/third_party/spiffs/lib/gcc/m4f/spiffs_cc26xx.a(spiffs_cache.c.obj)
                0x00000000000055fc                spiffs_cache_fd_release
 .text.spiffs_cache_init
                0x0000000000005650       0x9c /project/staging/core_examples/cc13xx_cc26xx_sdk/source/third_party/spiffs/lib/gcc/m4f/spiffs_cc26xx.a(spiffs_cache.c.obj)
                0x0000000000005650                spiffs_cache_init
 .text.spiffs_gc_quick
                0x00000000000056ec      0x210 /project/staging/core_examples/cc13xx_cc26xx_sdk/source/third_party/spiffs/lib/gcc/m4f/spiffs_cc26xx.a(spiffs_gc.c.obj)
                0x00000000000056ec                spiffs_gc_quick
 .text.spiffs_gc_erase_page_stats
                0x00000000000058fc      0x12c /project/staging/core_examples/cc13xx_cc26xx_sdk/source/third_party/spiffs/lib/gcc/m4f/spiffs_cc26xx.a(spiffs_gc.c.obj)
                0x00000000000058fc                spiffs_gc_erase_page_stats
 .text.spiffs_gc_find_candidate
                0x0000000000005a28      0x2a4 /project/staging/core_examples/cc13xx_cc26xx_sdk/source/third_party/spiffs/lib/gcc/m4f/spiffs_cc26xx.a(spiffs_gc.c.obj)
                0x0000000000005a28                spiffs_gc_find_candidate
 .text.spiffs_gc_clean
                0x0000000000005ccc      0x59c /project/staging/core_examples/cc13xx_cc26xx_sdk/source/third_party/spiffs/lib/gcc/m4f/spiffs_cc26xx.a(spiffs_gc.c.obj)
                0x0000000000005ccc                spiffs_gc_clean
 .text.spiffs_gc_check
                0x0000000000006268      0x158 /project/staging/core_examples/cc13xx_cc26xx_sdk/source/third_party/spiffs/lib/gcc/m4f/spiffs_cc26xx.a(spiffs_gc.c.obj)
                0x0000000000006268                spiffs_gc_check
 .text.Display_doOpen
                0x00000000000063c0       0x60 /project/staging/core_examples/cc13xx_cc26xx_sdk/source/ti/display/lib/gcc/m4f/display_cc26x2x7.a(Display.c.obj)
                0x00000000000063c0                Display_doOpen
 .text.Display_doPrintf
                0x0000000000006420       0x24 /project/staging/core_examples/cc13xx_cc26xx_sdk/source/ti/display/lib/gcc/m4f/display_cc26x2x7.a(Display.c.obj)
                0x0000000000006420                Display_doPrintf
 .text.Display_doInit
                0x0000000000006444       0x2c /project/staging/core_examples/cc13xx_cc26xx_sdk/source/ti/display/lib/gcc/m4f/display_cc26x2x7.a(Display.c.obj)
                0x0000000000006444                Display_doInit
 .text.DisplayUart2Min_init
                0x0000000000006470        0x4 /project/staging/core_examples/cc13xx_cc26xx_sdk/source/ti/display/lib/gcc/m4f/display_cc26x2x7.a(DisplayUart2.c.obj)
                0x0000000000006470                DisplayUart2Min_init
 .text.DisplayUart2Min_clearLines
                0x0000000000006474        0x4 /project/staging/core_examples/cc13xx_cc26xx_sdk/source/ti/display/lib/gcc/m4f/display_cc26x2x7.a(DisplayUart2.c.obj)
                0x0000000000006474                DisplayUart2Min_clearLines
 .text.DisplayUart2Min_control
                0x0000000000006478        0x8 /project/staging/core_examples/cc13xx_cc26xx_sdk/source/ti/display/lib/gcc/m4f/display_cc26x2x7.a(DisplayUart2.c.obj)
                0x0000000000006478                DisplayUart2Min_control
 .text.DisplayUart2Min_getType
                0x0000000000006480        0x8 /project/staging/core_examples/cc13xx_cc26xx_sdk/source/ti/display/lib/gcc/m4f/display_cc26x2x7.a(DisplayUart2.c.obj)
                0x0000000000006480                DisplayUart2Min_getType
 .text.DisplayUart2Min_open
                0x0000000000006488       0x40 /project/staging/core_examples/cc13xx_cc26xx_sdk/source/ti/display/lib/gcc/m4f/display_cc26x2x7.a(DisplayUart2.c.obj)
                0x0000000000006488                DisplayUart2Min_open
 .text.DisplayUart2Min_vprintf
                0x00000000000064c8       0x58 /project/staging/core_examples/cc13xx_cc26xx_sdk/source/ti/display/lib/gcc/m4f/display_cc26x2x7.a(DisplayUart2.c.obj)
                0x00000000000064c8                DisplayUart2Min_vprintf
 .text.DisplayUart2Min_close
                0x0000000000006520       0x18 /project/staging/core_examples/cc13xx_cc26xx_sdk/source/ti/display/lib/gcc/m4f/display_cc26x2x7.a(DisplayUart2.c.obj)
                0x0000000000006520                DisplayUart2Min_close
 .text.DisplayUart2Min_clear
                0x0000000000006538        0x4 /project/staging/core_examples/cc13xx_cc26xx_sdk/source/ti/display/lib/gcc/m4f/display_cc26x2x7.a(DisplayUart2.c.obj)
                0x0000000000006538                DisplayUart2Min_clear
 .text.GPIO_setCallback
                0x000000000000653c       0x1c /project/staging/core_examples/cc13xx_cc26xx_sdk/source/ti/drivers/lib/gcc/m4f/drivers_cc26x2x7.a(GPIO.c.obj)
                0x000000000000653c                GPIO_setCallback
 .text.GPIO_setUserArg
                0x0000000000006558       0x14 /project/staging/core_examples/cc13xx_cc26xx_sdk/source/ti/drivers/lib/gcc/m4f/drivers_cc26x2x7.a(GPIO.c.obj)
                0x0000000000006558                GPIO_setUserArg
 .text.GPIO_getUserArg
                0x000000000000656c       0x10 /project/staging/core_examples/cc13xx_cc26xx_sdk/source/ti/drivers/lib/gcc/m4f/drivers_cc26x2x7.a(GPIO.c.obj)
                0x000000000000656c                GPIO_getUserArg
 .text.GPIO_resetConfig
                0x000000000000657c       0x3c /project/staging/core_examples/cc13xx_cc26xx_sdk/source/ti/drivers/lib/gcc/m4f/drivers_cc26x2x7.a(GPIO.c.obj)
                0x000000000000657c                GPIO_resetConfig
 .text.GPIO_disableInt
                0x00000000000065b8       0x18 /project/staging/core_examples/cc13xx_cc26xx_sdk/source/ti/drivers/lib/gcc/m4f/drivers_cc26x2x7.a(GPIOCC26XX.c.obj)
                0x00000000000065b8                GPIO_disableInt
 .text.GPIO_read
                0x00000000000065d0       0x14 /project/staging/core_examples/cc13xx_cc26xx_sdk/source/ti/drivers/lib/gcc/m4f/drivers_cc26x2x7.a(GPIOCC26XX.c.obj)
                0x00000000000065d0                GPIO_read
 .text.GPIO_setConfig
                0x00000000000065e4       0x7c /project/staging/core_examples/cc13xx_cc26xx_sdk/source/ti/drivers/lib/gcc/m4f/drivers_cc26x2x7.a(GPIOCC26XX.c.obj)
                0x00000000000065e4                GPIO_setConfig
 .text.GPIO_setInterruptConfig
                0x0000000000006660       0x30 /project/staging/core_examples/cc13xx_cc26xx_sdk/source/ti/drivers/lib/gcc/m4f/drivers_cc26x2x7.a(GPIOCC26XX.c.obj)
                0x0000000000006660                GPIO_setInterruptConfig
 .text.GPIO_setConfigAndMux
                0x0000000000006690       0x7c /project/staging/core_examples/cc13xx_cc26xx_sdk/source/ti/drivers/lib/gcc/m4f/drivers_cc26x2x7.a(GPIOCC26XX.c.obj)
                0x0000000000006690                GPIO_setConfigAndMux
 .text.GPIO_write
                0x000000000000670c       0x14 /project/staging/core_examples/cc13xx_cc26xx_sdk/source/ti/drivers/lib/gcc/m4f/drivers_cc26x2x7.a(GPIOCC26XX.c.obj)
                0x000000000000670c                GPIO_write
 .text.NVS_close
                0x0000000000006720        0x8 /project/staging/core_examples/cc13xx_cc26xx_sdk/source/ti/drivers/lib/gcc/m4f/drivers_cc26x2x7.a(NVS.c.obj)
                0x0000000000006720                NVS_close
 .text.NVS_erase
                0x0000000000006728        0x8 /project/staging/core_examples/cc13xx_cc26xx_sdk/source/ti/drivers/lib/gcc/m4f/drivers_cc26x2x7.a(NVS.c.obj)
                0x0000000000006728                NVS_erase
 .text.NVS_getAttrs
                0x0000000000006730        0x8 /project/staging/core_examples/cc13xx_cc26xx_sdk/source/ti/drivers/lib/gcc/m4f/drivers_cc26x2x7.a(NVS.c.obj)
                0x0000000000006730                NVS_getAttrs
 .text.NVS_init
                0x0000000000006738       0x38 /project/staging/core_examples/cc13xx_cc26xx_sdk/source/ti/drivers/lib/gcc/m4f/drivers_cc26x2x7.a(NVS.c.obj)
                0x0000000000006738                NVS_init
 .text.NVS_open
                0x0000000000006770       0x84 /project/staging/core_examples/cc13xx_cc26xx_sdk/source/ti/drivers/lib/gcc/m4f/drivers_cc26x2x7.a(NVS.c.obj)
                0x0000000000006770                NVS_open
 .text.NVS_read
                0x00000000000067f4       0x10 /project/staging/core_examples/cc13xx_cc26xx_sdk/source/ti/drivers/lib/gcc/m4f/drivers_cc26x2x7.a(NVS.c.obj)
                0x00000000000067f4                NVS_read
 .text.NVS_write
                0x0000000000006804       0x10 /project/staging/core_examples/cc13xx_cc26xx_sdk/source/ti/drivers/lib/gcc/m4f/drivers_cc26x2x7.a(NVS.c.obj)
                0x0000000000006804                NVS_write
 .text.NVSSPI25X_getAttrs
                0x0000000000006814       0x14 /project/staging/core_examples/cc13xx_cc26xx_sdk/source/ti/drivers/lib/gcc/m4f/drivers_cc26x2x7.a(NVSSPI25X.c.obj)
                0x0000000000006814                NVSSPI25X_getAttrs
 .text.NVSSPI25X_lock
                0x0000000000006828       0x1c /project/staging/core_examples/cc13xx_cc26xx_sdk/source/ti/drivers/lib/gcc/m4f/drivers_cc26x2x7.a(NVSSPI25X.c.obj)
                0x0000000000006828                NVSSPI25X_lock
 .text.NVSSPI25X_unlock
                0x0000000000006844        0xc /project/staging/core_examples/cc13xx_cc26xx_sdk/source/ti/drivers/lib/gcc/m4f/drivers_cc26x2x7.a(NVSSPI25X.c.obj)
                0x0000000000006844                NVSSPI25X_unlock
 .text.NVSSPI25X_init
                0x0000000000006850       0x38 /project/staging/core_examples/cc13xx_cc26xx_sdk/source/ti/drivers/lib/gcc/m4f/drivers_cc26x2x7.a(NVSSPI25X.c.obj)
                0x0000000000006850                NVSSPI25X_init
 .text.NVSSPI25X_initSpiCs
                0x0000000000006888       0x24 /project/staging/core_examples/cc13xx_cc26xx_sdk/source/ti/drivers/lib/gcc/m4f/drivers_cc26x2x7.a(NVSSPI25X.c.obj)
                0x0000000000006888                NVSSPI25X_initSpiCs
 .text.NVSSPI25X_deinitSpiCs
                0x00000000000068ac        0x4 /project/staging/core_examples/cc13xx_cc26xx_sdk/source/ti/drivers/lib/gcc/m4f/drivers_cc26x2x7.a(NVSSPI25X.c.obj)
                0x00000000000068ac                NVSSPI25X_deinitSpiCs
 .text.NVSSPI25X_assertSpiCs
                0x00000000000068b0       0x14 /project/staging/core_examples/cc13xx_cc26xx_sdk/source/ti/drivers/lib/gcc/m4f/drivers_cc26x2x7.a(NVSSPI25X.c.obj)
                0x00000000000068b0                NVSSPI25X_assertSpiCs
 .text.NVSSPI25X_deassertSpiCs
                0x00000000000068c4       0x14 /project/staging/core_examples/cc13xx_cc26xx_sdk/source/ti/drivers/lib/gcc/m4f/drivers_cc26x2x7.a(NVSSPI25X.c.obj)
                0x00000000000068c4                NVSSPI25X_deassertSpiCs
 .text.extFlashWaitReady
                0x00000000000068d8       0x90 /project/staging/core_examples/cc13xx_cc26xx_sdk/source/ti/drivers/lib/gcc/m4f/drivers_cc26x2x7.a(NVSSPI25X.c.obj)
 .text.NVSSPI25X_close
                0x0000000000006968       0xbc /project/staging/core_examples/cc13xx_cc26xx_sdk/source/ti/drivers/lib/gcc/m4f/drivers_cc26x2x7.a(NVSSPI25X.c.obj)
                0x0000000000006968                NVSSPI25X_close
 .text.NVSSPI25X_control
                0x0000000000006a24       0x78 /project/staging/core_examples/cc13xx_cc26xx_sdk/source/ti/drivers/lib/gcc/m4f/drivers_cc26x2x7.a(NVSSPI25X.c.obj)
                0x0000000000006a24                NVSSPI25X_control
 .text.NVSSPI25X_open
                0x0000000000006a9c      0x180 /project/staging/core_examples/cc13xx_cc26xx_sdk/source/ti/drivers/lib/gcc/m4f/drivers_cc26x2x7.a(NVSSPI25X.c.obj)
                0x0000000000006a9c                NVSSPI25X_open
 .text.doRead   0x0000000000006c1c       0xb0 /project/staging/core_examples/cc13xx_cc26xx_sdk/source/ti/drivers/lib/gcc/m4f/drivers_cc26x2x7.a(NVSSPI25X.c.obj)
 .text.doErase  0x0000000000006ccc      0x124 /project/staging/core_examples/cc13xx_cc26xx_sdk/source/ti/drivers/lib/gcc/m4f/drivers_cc26x2x7.a(NVSSPI25X.c.obj)
 .text.NVSSPI25X_erase
                0x0000000000006df0       0x34 /project/staging/core_examples/cc13xx_cc26xx_sdk/source/ti/drivers/lib/gcc/m4f/drivers_cc26x2x7.a(NVSSPI25X.c.obj)
                0x0000000000006df0                NVSSPI25X_erase
 .text.NVSSPI25X_write
                0x0000000000006e24      0x270 /project/staging/core_examples/cc13xx_cc26xx_sdk/source/ti/drivers/lib/gcc/m4f/drivers_cc26x2x7.a(NVSSPI25X.c.obj)
                0x0000000000006e24                NVSSPI25X_write
 .text.NVSSPI25X_read
                0x0000000000007094       0xe0 /project/staging/core_examples/cc13xx_cc26xx_sdk/source/ti/drivers/lib/gcc/m4f/drivers_cc26x2x7.a(NVSSPI25X.c.obj)
                0x0000000000007094                NVSSPI25X_read
 .text.emptyClockFunc
                0x0000000000007174        0x4 /project/staging/core_examples/cc13xx_cc26xx_sdk/source/ti/drivers/lib/gcc/m4f/drivers_cc26x2x7.a(PowerCC26X2.c.obj)
 .text.nopResourceHandler
                0x0000000000007178        0x4 /project/staging/core_examples/cc13xx_cc26xx_sdk/source/ti/drivers/lib/gcc/m4f/drivers_cc26x2x7.a(PowerCC26X2.c.obj)
 .text.configureRFCoreClocks
                0x000000000000717c        0x4 /project/staging/core_examples/cc13xx_cc26xx_sdk/source/ti/drivers/lib/gcc/m4f/drivers_cc26x2x7.a(PowerCC26X2.c.obj)
 .text.switchToTCXO
                0x0000000000007180       0x80 /project/staging/core_examples/cc13xx_cc26xx_sdk/source/ti/drivers/lib/gcc/m4f/drivers_cc26x2x7.a(PowerCC26X2.c.obj)
 .text.configureXOSCHF
                0x0000000000007200      0x12c /project/staging/core_examples/cc13xx_cc26xx_sdk/source/ti/drivers/lib/gcc/m4f/drivers_cc26x2x7.a(PowerCC26X2.c.obj)
 .text.oscillatorISR
                0x000000000000732c      0x12c /project/staging/core_examples/cc13xx_cc26xx_sdk/source/ti/drivers/lib/gcc/m4f/drivers_cc26x2x7.a(PowerCC26X2.c.obj)
 .text.Power_disablePolicy
                0x0000000000007458       0x14 /project/staging/core_examples/cc13xx_cc26xx_sdk/source/ti/drivers/lib/gcc/m4f/drivers_cc26x2x7.a(PowerCC26X2.c.obj)
                0x0000000000007458                Power_disablePolicy
 .text.Power_enablePolicy
                0x000000000000746c       0x10 /project/staging/core_examples/cc13xx_cc26xx_sdk/source/ti/drivers/lib/gcc/m4f/drivers_cc26x2x7.a(PowerCC26X2.c.obj)
                0x000000000000746c                Power_enablePolicy
 .text.Power_getConstraintMask
                0x000000000000747c        0xc /project/staging/core_examples/cc13xx_cc26xx_sdk/source/ti/drivers/lib/gcc/m4f/drivers_cc26x2x7.a(PowerCC26X2.c.obj)
                0x000000000000747c                Power_getConstraintMask
 .text.Power_getDependencyCount
                0x0000000000007488       0x10 /project/staging/core_examples/cc13xx_cc26xx_sdk/source/ti/drivers/lib/gcc/m4f/drivers_cc26x2x7.a(PowerCC26X2.c.obj)
                0x0000000000007488                Power_getDependencyCount
 .text.Power_getTransitionLatency
                0x0000000000007498       0x1c /project/staging/core_examples/cc13xx_cc26xx_sdk/source/ti/drivers/lib/gcc/m4f/drivers_cc26x2x7.a(PowerCC26X2.c.obj)
                0x0000000000007498                Power_getTransitionLatency
 .text.Power_idleFunc
                0x00000000000074b4       0x18 /project/staging/core_examples/cc13xx_cc26xx_sdk/source/ti/drivers/lib/gcc/m4f/drivers_cc26x2x7.a(PowerCC26X2.c.obj)
                0x00000000000074b4                Power_idleFunc
 .text.Power_init
                0x00000000000074cc      0x168 /project/staging/core_examples/cc13xx_cc26xx_sdk/source/ti/drivers/lib/gcc/m4f/drivers_cc26x2x7.a(PowerCC26X2.c.obj)
                0x00000000000074cc                Power_init
 .text.Power_registerNotify
                0x0000000000007634       0x24 /project/staging/core_examples/cc13xx_cc26xx_sdk/source/ti/drivers/lib/gcc/m4f/drivers_cc26x2x7.a(PowerCC26X2.c.obj)
                0x0000000000007634                Power_registerNotify
 .text.Power_releaseConstraint
                0x0000000000007658       0x34 /project/staging/core_examples/cc13xx_cc26xx_sdk/source/ti/drivers/lib/gcc/m4f/drivers_cc26x2x7.a(PowerCC26X2.c.obj)
                0x0000000000007658                Power_releaseConstraint
 .text.Power_releaseDependency
                0x000000000000768c       0xc0 /project/staging/core_examples/cc13xx_cc26xx_sdk/source/ti/drivers/lib/gcc/m4f/drivers_cc26x2x7.a(PowerCC26X2.c.obj)
                0x000000000000768c                Power_releaseDependency
 .text.Power_setConstraint
                0x000000000000774c       0x30 /project/staging/core_examples/cc13xx_cc26xx_sdk/source/ti/drivers/lib/gcc/m4f/drivers_cc26x2x7.a(PowerCC26X2.c.obj)
                0x000000000000774c                Power_setConstraint
 .text.Power_setDependency
                0x000000000000777c       0xcc /project/staging/core_examples/cc13xx_cc26xx_sdk/source/ti/drivers/lib/gcc/m4f/drivers_cc26x2x7.a(PowerCC26X2.c.obj)
                0x000000000000777c                Power_setDependency
 .text.Power_sleep
                0x0000000000007848      0x1c8 /project/staging/core_examples/cc13xx_cc26xx_sdk/source/ti/drivers/lib/gcc/m4f/drivers_cc26x2x7.a(PowerCC26X2.c.obj)
                0x0000000000007848                Power_sleep
 .text.Power_unregisterNotify
                0x0000000000007a10       0x24 /project/staging/core_examples/cc13xx_cc26xx_sdk/source/ti/drivers/lib/gcc/m4f/drivers_cc26x2x7.a(PowerCC26X2.c.obj)
                0x0000000000007a10                Power_unregisterNotify
 .text.PowerCC26XX_calibrate
                0x0000000000007a34       0x18 /project/staging/core_examples/cc13xx_cc26xx_sdk/source/ti/drivers/lib/gcc/m4f/drivers_cc26x2x7.a(PowerCC26X2.c.obj)
                0x0000000000007a34                PowerCC26XX_calibrate
 .text.PowerCC26X2_initiateCalibration
                0x0000000000007a4c       0x74 /project/staging/core_examples/cc13xx_cc26xx_sdk/source/ti/drivers/lib/gcc/m4f/drivers_cc26x2x7.a(PowerCC26X2_calibrateRCOSC.c.obj)
                0x0000000000007a4c                PowerCC26X2_initiateCalibration
 .text.PowerCC26X2_auxISR
                0x0000000000007ac0      0x2ec /project/staging/core_examples/cc13xx_cc26xx_sdk/source/ti/drivers/lib/gcc/m4f/drivers_cc26x2x7.a(PowerCC26X2_calibrateRCOSC.c.obj)
                0x0000000000007ac0                PowerCC26X2_auxISR
 .text.PowerCC26X2_calibrate
                0x0000000000007dac      0x140 /project/staging/core_examples/cc13xx_cc26xx_sdk/source/ti/drivers/lib/gcc/m4f/drivers_cc26x2x7.a(PowerCC26X2_calibrateRCOSC.c.obj)
                0x0000000000007dac                PowerCC26X2_calibrate
 .text.PowerCC26X2_RCOSC_clockFunc
                0x0000000000007eec       0x4c /project/staging/core_examples/cc13xx_cc26xx_sdk/source/ti/drivers/lib/gcc/m4f/drivers_cc26x2x7.a(PowerCC26X2_calibrateRCOSC.c.obj)
                0x0000000000007eec                PowerCC26X2_RCOSC_clockFunc
 .text.SPI_close
                0x0000000000007f38        0x8 /project/staging/core_examples/cc13xx_cc26xx_sdk/source/ti/drivers/lib/gcc/m4f/drivers_cc26x2x7.a(SPI.c.obj)
                0x0000000000007f38                SPI_close
 .text.SPI_init
                0x0000000000007f40       0x4c /project/staging/core_examples/cc13xx_cc26xx_sdk/source/ti/drivers/lib/gcc/m4f/drivers_cc26x2x7.a(SPI.c.obj)
                0x0000000000007f40                SPI_init
 .text.SPI_open
                0x0000000000007f8c       0x44 /project/staging/core_examples/cc13xx_cc26xx_sdk/source/ti/drivers/lib/gcc/m4f/drivers_cc26x2x7.a(SPI.c.obj)
                0x0000000000007f8c                SPI_open
 .text.SPI_Params_init
                0x0000000000007fd0       0x1c /project/staging/core_examples/cc13xx_cc26xx_sdk/source/ti/drivers/lib/gcc/m4f/drivers_cc26x2x7.a(SPI.c.obj)
                0x0000000000007fd0                SPI_Params_init
 .text.SPI_transfer
                0x0000000000007fec        0x8 /project/staging/core_examples/cc13xx_cc26xx_sdk/source/ti/drivers/lib/gcc/m4f/drivers_cc26x2x7.a(SPI.c.obj)
                0x0000000000007fec                SPI_transfer
 .text.UART2_Params_init
                0x0000000000007ff4       0x1c /project/staging/core_examples/cc13xx_cc26xx_sdk/source/ti/drivers/lib/gcc/m4f/drivers_cc26x2x7.a(UART2.c.obj)
                0x0000000000007ff4                UART2_Params_init
 .text.UART2_readCancel
                0x0000000000008010       0x60 /project/staging/core_examples/cc13xx_cc26xx_sdk/source/ti/drivers/lib/gcc/m4f/drivers_cc26x2x7.a(UART2.c.obj)
                0x0000000000008010                UART2_readCancel
 .text.UART2_rxDisable
                0x0000000000008070       0x40 /project/staging/core_examples/cc13xx_cc26xx_sdk/source/ti/drivers/lib/gcc/m4f/drivers_cc26x2x7.a(UART2.c.obj)
                0x0000000000008070                UART2_rxDisable
 .text.UART2_writeTimeoutBlocking
                0x00000000000080b0      0x174 /project/staging/core_examples/cc13xx_cc26xx_sdk/source/ti/drivers/lib/gcc/m4f/drivers_cc26x2x7.a(UART2.c.obj)
                0x00000000000080b0                UART2_writeTimeoutBlocking
 .text.UART2_writeTimeoutNonblocking
                0x0000000000008224      0x134 /project/staging/core_examples/cc13xx_cc26xx_sdk/source/ti/drivers/lib/gcc/m4f/drivers_cc26x2x7.a(UART2.c.obj)
                0x0000000000008224                UART2_writeTimeoutNonblocking
 .text.UART2_writeTimeout
                0x0000000000008358       0x1c /project/staging/core_examples/cc13xx_cc26xx_sdk/source/ti/drivers/lib/gcc/m4f/drivers_cc26x2x7.a(UART2.c.obj)
                0x0000000000008358                UART2_writeTimeout
 .text.UART2_write
                0x0000000000008374       0x14 /project/staging/core_examples/cc13xx_cc26xx_sdk/source/ti/drivers/lib/gcc/m4f/drivers_cc26x2x7.a(UART2.c.obj)
                0x0000000000008374                UART2_write
 .text.UART2_writeCancel
                0x0000000000008388       0xb0 /project/staging/core_examples/cc13xx_cc26xx_sdk/source/ti/drivers/lib/gcc/m4f/drivers_cc26x2x7.a(UART2.c.obj)
                0x0000000000008388                UART2_writeCancel
 .text.UART2CC26X2_eventCallback
                0x0000000000008438        0x4 /project/staging/core_examples/cc13xx_cc26xx_sdk/source/ti/drivers/lib/gcc/m4f/drivers_cc26x2x7.a(UART2CC26X2.c.obj)
 .text.UART2CC26X2_postNotifyFxn
                0x000000000000843c      0x138 /project/staging/core_examples/cc13xx_cc26xx_sdk/source/ti/drivers/lib/gcc/m4f/drivers_cc26x2x7.a(UART2CC26X2.c.obj)
 .text.UART2_close
                0x0000000000008574       0x9c /project/staging/core_examples/cc13xx_cc26xx_sdk/source/ti/drivers/lib/gcc/m4f/drivers_cc26x2x7.a(UART2CC26X2.c.obj)
                0x0000000000008574                UART2_close
 .text.UART2_open
                0x0000000000008610      0x2fc /project/staging/core_examples/cc13xx_cc26xx_sdk/source/ti/drivers/lib/gcc/m4f/drivers_cc26x2x7.a(UART2CC26X2.c.obj)
                0x0000000000008610                UART2_open
 .text.UART2Support_disableRx
                0x000000000000890c       0x20 /project/staging/core_examples/cc13xx_cc26xx_sdk/source/ti/drivers/lib/gcc/m4f/drivers_cc26x2x7.a(UART2CC26X2.c.obj)
                0x000000000000890c                UART2Support_disableRx
 .text.UART2Support_disableTx
                0x000000000000892c        0xc /project/staging/core_examples/cc13xx_cc26xx_sdk/source/ti/drivers/lib/gcc/m4f/drivers_cc26x2x7.a(UART2CC26X2.c.obj)
                0x000000000000892c                UART2Support_disableTx
 .text.UART2Support_dmaStartTx
                0x0000000000008938       0xe4 /project/staging/core_examples/cc13xx_cc26xx_sdk/source/ti/drivers/lib/gcc/m4f/drivers_cc26x2x7.a(UART2CC26X2.c.obj)
                0x0000000000008938                UART2Support_dmaStartTx
 .text.UART2Support_dmaStopRx
                0x0000000000008a1c       0x74 /project/staging/core_examples/cc13xx_cc26xx_sdk/source/ti/drivers/lib/gcc/m4f/drivers_cc26x2x7.a(UART2CC26X2.c.obj)
                0x0000000000008a1c                UART2Support_dmaStopRx
 .text.UART2Support_dmaStartRx
                0x0000000000008a90      0x104 /project/staging/core_examples/cc13xx_cc26xx_sdk/source/ti/drivers/lib/gcc/m4f/drivers_cc26x2x7.a(UART2CC26X2.c.obj)
                0x0000000000008a90                UART2Support_dmaStartRx
 .text.UART2Support_dmaStopTx
                0x0000000000008b94       0x8c /project/staging/core_examples/cc13xx_cc26xx_sdk/source/ti/drivers/lib/gcc/m4f/drivers_cc26x2x7.a(UART2CC26X2.c.obj)
                0x0000000000008b94                UART2Support_dmaStopTx
 .text.UART2CC26X2_hwiIntFxn
                0x0000000000008c20      0x2bc /project/staging/core_examples/cc13xx_cc26xx_sdk/source/ti/drivers/lib/gcc/m4f/drivers_cc26x2x7.a(UART2CC26X2.c.obj)
 .text.UART2Support_enableTx
                0x0000000000008edc        0xc /project/staging/core_examples/cc13xx_cc26xx_sdk/source/ti/drivers/lib/gcc/m4f/drivers_cc26x2x7.a(UART2CC26X2.c.obj)
                0x0000000000008edc                UART2Support_enableTx
 .text.UART2Support_powerRelConstraint
                0x0000000000008ee8       0x2c /project/staging/core_examples/cc13xx_cc26xx_sdk/source/ti/drivers/lib/gcc/m4f/drivers_cc26x2x7.a(UART2CC26X2.c.obj)
                0x0000000000008ee8                UART2Support_powerRelConstraint
 .text.UART2Support_sendData
                0x0000000000008f14       0x3c /project/staging/core_examples/cc13xx_cc26xx_sdk/source/ti/drivers/lib/gcc/m4f/drivers_cc26x2x7.a(UART2CC26X2.c.obj)
                0x0000000000008f14                UART2Support_sendData
 .text.UART2Support_txDone
                0x0000000000008f50       0x10 /project/staging/core_examples/cc13xx_cc26xx_sdk/source/ti/drivers/lib/gcc/m4f/drivers_cc26x2x7.a(UART2CC26X2.c.obj)
                0x0000000000008f50                UART2Support_txDone
 .text.GPIO_hwiIntFxn
                0x0000000000008f60       0x4c /project/staging/core_examples/cc13xx_cc26xx_sdk/source/ti/drivers/lib/gcc/m4f/drivers_cc26x2x7.a(GPIOCC26X2.c.obj)
                0x0000000000008f60                GPIO_hwiIntFxn
 .text.GPIO_init
                0x0000000000008fac      0x138 /project/staging/core_examples/cc13xx_cc26xx_sdk/source/ti/drivers/lib/gcc/m4f/drivers_cc26x2x7.a(GPIOCC26X2.c.obj)
                0x0000000000008fac                GPIO_init
 .text.PowerCC26X2_updateSubSecInc
                0x00000000000090e4       0x84 /project/staging/core_examples/cc13xx_cc26xx_sdk/source/ti/drivers/lib/gcc/m4f/drivers_cc26x2x7.a(PowerCC26X2_calibrateRCOSC_helpers.c.obj)
                0x00000000000090e4                PowerCC26X2_updateSubSecInc
 .text.PowerCC26X2_readCtrim
                0x0000000000009168       0x10 /project/staging/core_examples/cc13xx_cc26xx_sdk/source/ti/drivers/lib/gcc/m4f/drivers_cc26x2x7.a(PowerCC26X2_calibrateRCOSC_helpers.c.obj)
                0x0000000000009168                PowerCC26X2_readCtrim
 .text.PowerCC26X2_readCtrimFract
                0x0000000000009178       0x10 /project/staging/core_examples/cc13xx_cc26xx_sdk/source/ti/drivers/lib/gcc/m4f/drivers_cc26x2x7.a(PowerCC26X2_calibrateRCOSC_helpers.c.obj)
                0x0000000000009178                PowerCC26X2_readCtrimFract
 .text.PowerCC26X2_readRtrim
                0x0000000000009188       0x10 /project/staging/core_examples/cc13xx_cc26xx_sdk/source/ti/drivers/lib/gcc/m4f/drivers_cc26x2x7.a(PowerCC26X2_calibrateRCOSC_helpers.c.obj)
                0x0000000000009188                PowerCC26X2_readRtrim
 .text.PowerCC26X2_writeCtrim
                0x0000000000009198       0x28 /project/staging/core_examples/cc13xx_cc26xx_sdk/source/ti/drivers/lib/gcc/m4f/drivers_cc26x2x7.a(PowerCC26X2_calibrateRCOSC_helpers.c.obj)
                0x0000000000009198                PowerCC26X2_writeCtrim
 .text.PowerCC26X2_writeCtrimFract
                0x00000000000091c0       0x28 /project/staging/core_examples/cc13xx_cc26xx_sdk/source/ti/drivers/lib/gcc/m4f/drivers_cc26x2x7.a(PowerCC26X2_calibrateRCOSC_helpers.c.obj)
                0x00000000000091c0                PowerCC26X2_writeCtrimFract
 .text.PowerCC26X2_writeCtrimFractEn
                0x00000000000091e8       0x28 /project/staging/core_examples/cc13xx_cc26xx_sdk/source/ti/drivers/lib/gcc/m4f/drivers_cc26x2x7.a(PowerCC26X2_calibrateRCOSC_helpers.c.obj)
                0x00000000000091e8                PowerCC26X2_writeCtrimFractEn
 .text.PowerCC26X2_writeRtrim
                0x0000000000009210       0x28 /project/staging/core_examples/cc13xx_cc26xx_sdk/source/ti/drivers/lib/gcc/m4f/drivers_cc26x2x7.a(PowerCC26X2_calibrateRCOSC_helpers.c.obj)
                0x0000000000009210                PowerCC26X2_writeRtrim
 .text.PowerCC26X2_setTdcClkSrc24M
                0x0000000000009238       0x3c /project/staging/core_examples/cc13xx_cc26xx_sdk/source/ti/drivers/lib/gcc/m4f/drivers_cc26x2x7.a(PowerCC26X2_calibrateRCOSC_helpers.c.obj)
                0x0000000000009238                PowerCC26X2_setTdcClkSrc24M
 .text.PowerCC26X2_setAclkRefSrc
                0x0000000000009274       0x40 /project/staging/core_examples/cc13xx_cc26xx_sdk/source/ti/drivers/lib/gcc/m4f/drivers_cc26x2x7.a(PowerCC26X2_calibrateRCOSC_helpers.c.obj)
                0x0000000000009274                PowerCC26X2_setAclkRefSrc
 .text.PowerCC26X2_oscCtlClearXtal
                0x00000000000092b4       0x10 /project/staging/core_examples/cc13xx_cc26xx_sdk/source/ti/drivers/lib/gcc/m4f/drivers_cc26x2x7.a(PowerCC26X2_helpers.c.obj)
                0x00000000000092b4                PowerCC26X2_oscCtlClearXtal
 .text.PowerCC26X2_prcmEnableCacheRetention
                0x00000000000092c4       0x10 /project/staging/core_examples/cc13xx_cc26xx_sdk/source/ti/drivers/lib/gcc/m4f/drivers_cc26x2x7.a(PowerCC26X2_helpers.c.obj)
                0x00000000000092c4                PowerCC26X2_prcmEnableCacheRetention
 .text.PowerCC26X2_oschfSwitchToRcosc
                0x00000000000092d4        0x4 /project/staging/core_examples/cc13xx_cc26xx_sdk/source/ti/drivers/lib/gcc/m4f/drivers_cc26x2x7.a(PowerCC26X2_helpers.c.obj)
                0x00000000000092d4                PowerCC26X2_oschfSwitchToRcosc
 .text.PowerCC26X2_oscClockSourceGet
                0x00000000000092d8        0xc /project/staging/core_examples/cc13xx_cc26xx_sdk/source/ti/drivers/lib/gcc/m4f/drivers_cc26x2x7.a(PowerCC26X2_helpers.c.obj)
                0x00000000000092d8                PowerCC26X2_oscClockSourceGet
 .text.PowerCC26X2_oscDisableQualifiers
                0x00000000000092e4       0x3c /project/staging/core_examples/cc13xx_cc26xx_sdk/source/ti/drivers/lib/gcc/m4f/drivers_cc26x2x7.a(PowerCC26X2_helpers.c.obj)
                0x00000000000092e4                PowerCC26X2_oscDisableQualifiers
 .text.PowerCC26X2_oschfTrySwitchToXosc
                0x0000000000009320        0x8 /project/staging/core_examples/cc13xx_cc26xx_sdk/source/ti/drivers/lib/gcc/m4f/drivers_cc26x2x7.a(PowerCC26X2_helpers.c.obj)
                0x0000000000009320                PowerCC26X2_oschfTrySwitchToXosc
 .text.PowerCC26X2_enableTCXOQual
                0x0000000000009328       0x20 /project/staging/core_examples/cc13xx_cc26xx_sdk/source/ti/drivers/lib/gcc/m4f/drivers_cc26x2x7.a(PowerCC26X2_helpers.c.obj)
                0x0000000000009328                PowerCC26X2_enableTCXOQual
 .text.PowerCC26X2_disableTCXOQual
                0x0000000000009348       0x20 /project/staging/core_examples/cc13xx_cc26xx_sdk/source/ti/drivers/lib/gcc/m4f/drivers_cc26x2x7.a(PowerCC26X2_helpers.c.obj)
                0x0000000000009348                PowerCC26X2_disableTCXOQual
 .text.PowerCC26X2_turnOnXosc
                0x0000000000009368        0x4 /project/staging/core_examples/cc13xx_cc26xx_sdk/source/ti/drivers/lib/gcc/m4f/drivers_cc26x2x7.a(PowerCC26X2_helpers.c.obj)
                0x0000000000009368                PowerCC26X2_turnOnXosc
 .text.PowerCC26X2_switchToTCXO
                0x000000000000936c       0x10 /project/staging/core_examples/cc13xx_cc26xx_sdk/source/ti/drivers/lib/gcc/m4f/drivers_cc26x2x7.a(PowerCC26X2_helpers.c.obj)
                0x000000000000936c                PowerCC26X2_switchToTCXO
 .text.PowerCC26X2_sysCtrlStandby
                0x000000000000937c        0xc /project/staging/core_examples/cc13xx_cc26xx_sdk/source/ti/drivers/lib/gcc/m4f/drivers_cc26x2x7.a(PowerCC26X2_helpers.c.obj)
                0x000000000000937c                PowerCC26X2_sysCtrlStandby
 .text.PowerCC26X2_sysCtrlIdle
                0x0000000000009388        0x4 /project/staging/core_examples/cc13xx_cc26xx_sdk/source/ti/drivers/lib/gcc/m4f/drivers_cc26x2x7.a(PowerCC26X2_helpers.c.obj)
                0x0000000000009388                PowerCC26X2_sysCtrlIdle
 .text.PowerCC26X2_setPeriphDeepSleepEnable
                0x000000000000938c        0xc /project/staging/core_examples/cc13xx_cc26xx_sdk/source/ti/drivers/lib/gcc/m4f/drivers_cc26x2x7.a(PowerCC26X2_helpers.c.obj)
                0x000000000000938c                PowerCC26X2_setPeriphDeepSleepEnable
 .text.PowerCC26X2_sysCtrlGetResetSource
                0x0000000000009398        0xc /project/staging/core_examples/cc13xx_cc26xx_sdk/source/ti/drivers/lib/gcc/m4f/drivers_cc26x2x7.a(PowerCC26X2_helpers.c.obj)
                0x0000000000009398                PowerCC26X2_sysCtrlGetResetSource
 .text.PowerCC26X2_setSubSecIncToXoscLf
                0x00000000000093a4       0x30 /project/staging/core_examples/cc13xx_cc26xx_sdk/source/ti/drivers/lib/gcc/m4f/drivers_cc26x2x7.a(PowerCC26X2_helpers.c.obj)
                0x00000000000093a4                PowerCC26X2_setSubSecIncToXoscLf
 .text.PowerCC26X2_sysCtrlUpdateVoltageRegulator
                0x00000000000093d4        0xc /project/staging/core_examples/cc13xx_cc26xx_sdk/source/ti/drivers/lib/gcc/m4f/drivers_cc26x2x7.a(PowerCC26X2_helpers.c.obj)
                0x00000000000093d4                PowerCC26X2_sysCtrlUpdateVoltageRegulator
 .text.SPICC26X2DMA_init
                0x00000000000093e0        0xc /project/staging/core_examples/cc13xx_cc26xx_sdk/source/ti/drivers/lib/gcc/m4f/drivers_cc26x2x7.a(SPICC26X2DMA.c.obj)
                0x00000000000093e0                SPICC26X2DMA_init
 .text.configNextTransfer
                0x00000000000093ec      0x15c /project/staging/core_examples/cc13xx_cc26xx_sdk/source/ti/drivers/lib/gcc/m4f/drivers_cc26x2x7.a(SPICC26X2DMA.c.obj)
 .text.SPICC26X2DMA_control
                0x0000000000009548       0xd8 /project/staging/core_examples/cc13xx_cc26xx_sdk/source/ti/drivers/lib/gcc/m4f/drivers_cc26x2x7.a(SPICC26X2DMA.c.obj)
                0x0000000000009548                SPICC26X2DMA_control
 .text.blockingTransferCallback
                0x0000000000009620        0x8 /project/staging/core_examples/cc13xx_cc26xx_sdk/source/ti/drivers/lib/gcc/m4f/drivers_cc26x2x7.a(SPICC26X2DMA.c.obj)
 .text.SPICC26X2DMA_close
                0x0000000000009628       0x74 /project/staging/core_examples/cc13xx_cc26xx_sdk/source/ti/drivers/lib/gcc/m4f/drivers_cc26x2x7.a(SPICC26X2DMA.c.obj)
                0x0000000000009628                SPICC26X2DMA_close
 .text.SPICC26X2DMA_swiFxn
                0x000000000000969c       0x6c /project/staging/core_examples/cc13xx_cc26xx_sdk/source/ti/drivers/lib/gcc/m4f/drivers_cc26x2x7.a(SPICC26X2DMA.c.obj)
 .text.initHw.isra.0
                0x0000000000009708       0x8c /project/staging/core_examples/cc13xx_cc26xx_sdk/source/ti/drivers/lib/gcc/m4f/drivers_cc26x2x7.a(SPICC26X2DMA.c.obj)
 .text.spiPostNotify
                0x0000000000009794       0x10 /project/staging/core_examples/cc13xx_cc26xx_sdk/source/ti/drivers/lib/gcc/m4f/drivers_cc26x2x7.a(SPICC26X2DMA.c.obj)
 .text.SPICC26X2DMA_open
                0x00000000000097a4      0x1a4 /project/staging/core_examples/cc13xx_cc26xx_sdk/source/ti/drivers/lib/gcc/m4f/drivers_cc26x2x7.a(SPICC26X2DMA.c.obj)
                0x00000000000097a4                SPICC26X2DMA_open
 .text.finishTransfer
                0x0000000000009948       0xb8 /project/staging/core_examples/cc13xx_cc26xx_sdk/source/ti/drivers/lib/gcc/m4f/drivers_cc26x2x7.a(SPICC26X2DMA.c.obj)
 .text.csnCallback
                0x0000000000009a00      0x10c /project/staging/core_examples/cc13xx_cc26xx_sdk/source/ti/drivers/lib/gcc/m4f/drivers_cc26x2x7.a(SPICC26X2DMA.c.obj)
 .text.SPICC26X2DMA_transferCancel
                0x0000000000009b0c       0xac /project/staging/core_examples/cc13xx_cc26xx_sdk/source/ti/drivers/lib/gcc/m4f/drivers_cc26x2x7.a(SPICC26X2DMA.c.obj)
                0x0000000000009b0c                SPICC26X2DMA_transferCancel
 .text.SPICC26X2DMA_hwiFxn
                0x0000000000009bb8      0x21c /project/staging/core_examples/cc13xx_cc26xx_sdk/source/ti/drivers/lib/gcc/m4f/drivers_cc26x2x7.a(SPICC26X2DMA.c.obj)
 .text.SPICC26X2DMA_transfer
                0x0000000000009dd4      0x340 /project/staging/core_examples/cc13xx_cc26xx_sdk/source/ti/drivers/lib/gcc/m4f/drivers_cc26x2x7.a(SPICC26X2DMA.c.obj)
                0x0000000000009dd4                SPICC26X2DMA_transfer
 .text.List_put
                0x000000000000a114       0x2c /project/staging/core_examples/cc13xx_cc26xx_sdk/source/ti/drivers/lib/gcc/m4f/drivers_cc26x2x7.a(List.c.obj)
                0x000000000000a114                List_put
 .text.List_remove
                0x000000000000a140       0x30 /project/staging/core_examples/cc13xx_cc26xx_sdk/source/ti/drivers/lib/gcc/m4f/drivers_cc26x2x7.a(List.c.obj)
                0x000000000000a140                List_remove
 .text.RingBuf_construct
                0x000000000000a170       0x14 /project/staging/core_examples/cc13xx_cc26xx_sdk/source/ti/drivers/lib/gcc/m4f/drivers_cc26x2x7.a(RingBuf.c.obj)
                0x000000000000a170                RingBuf_construct
 .text.RingBuf_getConsume
                0x000000000000a184       0x30 /project/staging/core_examples/cc13xx_cc26xx_sdk/source/ti/drivers/lib/gcc/m4f/drivers_cc26x2x7.a(RingBuf.c.obj)
                0x000000000000a184                RingBuf_getConsume
 .text.RingBuf_getCount
                0x000000000000a1b4        0x4 /project/staging/core_examples/cc13xx_cc26xx_sdk/source/ti/drivers/lib/gcc/m4f/drivers_cc26x2x7.a(RingBuf.c.obj)
                0x000000000000a1b4                RingBuf_getCount
 .text.RingBuf_getPointer
                0x000000000000a1b8       0x28 /project/staging/core_examples/cc13xx_cc26xx_sdk/source/ti/drivers/lib/gcc/m4f/drivers_cc26x2x7.a(RingBuf.c.obj)
                0x000000000000a1b8                RingBuf_getPointer
 .text.RingBuf_flush
                0x000000000000a1e0       0x1c /project/staging/core_examples/cc13xx_cc26xx_sdk/source/ti/drivers/lib/gcc/m4f/drivers_cc26x2x7.a(RingBuf.c.obj)
                0x000000000000a1e0                RingBuf_flush
 .text.RingBuf_put
                0x000000000000a1fc       0x48 /project/staging/core_examples/cc13xx_cc26xx_sdk/source/ti/drivers/lib/gcc/m4f/drivers_cc26x2x7.a(RingBuf.c.obj)
                0x000000000000a1fc                RingBuf_put
 .text.RingBuf_putAdvance
                0x000000000000a244       0x3c /project/staging/core_examples/cc13xx_cc26xx_sdk/source/ti/drivers/lib/gcc/m4f/drivers_cc26x2x7.a(RingBuf.c.obj)
                0x000000000000a244                RingBuf_putAdvance
 .text.RingBuf_putPointer
                0x000000000000a280       0x34 /project/staging/core_examples/cc13xx_cc26xx_sdk/source/ti/drivers/lib/gcc/m4f/drivers_cc26x2x7.a(RingBuf.c.obj)
                0x000000000000a280                RingBuf_putPointer
 .text.UDMACC26XX_hwiIntFxn
                0x000000000000a2b4        0xc /project/staging/core_examples/cc13xx_cc26xx_sdk/source/ti/drivers/lib/gcc/m4f/drivers_cc26x2x7.a(UDMACC26XX.c.obj)
                0x000000000000a2b4                UDMACC26XX_hwiIntFxn
 .text.UDMACC26XX_open
                0x000000000000a2c0       0x6c /project/staging/core_examples/cc13xx_cc26xx_sdk/source/ti/drivers/lib/gcc/m4f/drivers_cc26x2x7.a(UDMACC26XX.c.obj)
                0x000000000000a2c0                UDMACC26XX_open
 .text.UDMACC26XX_close
                0x000000000000a32c       0x44 /project/staging/core_examples/cc13xx_cc26xx_sdk/source/ti/drivers/lib/gcc/m4f/drivers_cc26x2x7.a(UDMACC26XX.c.obj)
                0x000000000000a32c                UDMACC26XX_close
 .text.NoRTOS_start
                0x000000000000a370        0x4 /project/staging/core_examples/cc13xx_cc26xx_sdk/kernel/nortos/lib/gcc/m4f/nortos_cc26x2x7.a(NoRTOS.c.obj)
                0x000000000000a370                NoRTOS_start
 .text.MutexP_create
                0x000000000000a374        0x8 /project/staging/core_examples/cc13xx_cc26xx_sdk/kernel/nortos/lib/gcc/m4f/nortos_cc26x2x7.a(MutexP_nortos.c.obj)
                0x000000000000a374                MutexP_create
 .text.MutexP_lock
                0x000000000000a37c        0x4 /project/staging/core_examples/cc13xx_cc26xx_sdk/kernel/nortos/lib/gcc/m4f/nortos_cc26x2x7.a(MutexP_nortos.c.obj)
                0x000000000000a37c                MutexP_lock
 .text.MutexP_unlock
                0x000000000000a380        0x4 /project/staging/core_examples/cc13xx_cc26xx_sdk/kernel/nortos/lib/gcc/m4f/nortos_cc26x2x7.a(MutexP_nortos.c.obj)
                0x000000000000a380                MutexP_unlock
 .text.clkFxn   0x000000000000a384        0x4 /project/staging/core_examples/cc13xx_cc26xx_sdk/kernel/nortos/lib/gcc/m4f/nortos_cc26x2x7.a(SemaphoreP_nortos.c.obj)
                0x000000000000a384                clkFxn
 .text.SemaphoreP_construct
                0x000000000000a388       0x60 /project/staging/core_examples/cc13xx_cc26xx_sdk/kernel/nortos/lib/gcc/m4f/nortos_cc26x2x7.a(SemaphoreP_nortos.c.obj)
                0x000000000000a388                SemaphoreP_construct
 .text.SemaphoreP_constructBinary
                0x000000000000a3e8       0x3c /project/staging/core_examples/cc13xx_cc26xx_sdk/kernel/nortos/lib/gcc/m4f/nortos_cc26x2x7.a(SemaphoreP_nortos.c.obj)
                0x000000000000a3e8                SemaphoreP_constructBinary
 .text.SemaphoreP_createBinary
                0x000000000000a424       0x40 /project/staging/core_examples/cc13xx_cc26xx_sdk/kernel/nortos/lib/gcc/m4f/nortos_cc26x2x7.a(SemaphoreP_nortos.c.obj)
                0x000000000000a424                SemaphoreP_createBinary
 .text.SemaphoreP_destruct
                0x000000000000a464        0x4 /project/staging/core_examples/cc13xx_cc26xx_sdk/kernel/nortos/lib/gcc/m4f/nortos_cc26x2x7.a(SemaphoreP_nortos.c.obj)
                0x000000000000a464                SemaphoreP_destruct
 .text.SemaphoreP_delete
                0x000000000000a468        0x4 /project/staging/core_examples/cc13xx_cc26xx_sdk/kernel/nortos/lib/gcc/m4f/nortos_cc26x2x7.a(SemaphoreP_nortos.c.obj)
                0x000000000000a468                SemaphoreP_delete
 .text.SemaphoreP_pend
                0x000000000000a46c       0xfc /project/staging/core_examples/cc13xx_cc26xx_sdk/kernel/nortos/lib/gcc/m4f/nortos_cc26x2x7.a(SemaphoreP_nortos.c.obj)
                0x000000000000a46c                SemaphoreP_pend
 .text.SemaphoreP_post
                0x000000000000a568       0x44 /project/staging/core_examples/cc13xx_cc26xx_sdk/kernel/nortos/lib/gcc/m4f/nortos_cc26x2x7.a(SemaphoreP_nortos.c.obj)
                0x000000000000a568                SemaphoreP_post
 .text.SwiP_Params_init
                0x000000000000a5ac       0x10 /project/staging/core_examples/cc13xx_cc26xx_sdk/kernel/nortos/lib/gcc/m4f/nortos_cc26x2x7.a(SwiP_nortos.c.obj)
                0x000000000000a5ac                SwiP_Params_init
 .text.SwiP_construct
                0x000000000000a5bc      0x104 /project/staging/core_examples/cc13xx_cc26xx_sdk/kernel/nortos/lib/gcc/m4f/nortos_cc26x2x7.a(SwiP_nortos.c.obj)
                0x000000000000a5bc                SwiP_construct
 .text.SwiP_destruct
                0x000000000000a6c0       0x38 /project/staging/core_examples/cc13xx_cc26xx_sdk/kernel/nortos/lib/gcc/m4f/nortos_cc26x2x7.a(SwiP_nortos.c.obj)
                0x000000000000a6c0                SwiP_destruct
 .text.SwiP_disable
                0x000000000000a6f8       0x1c /project/staging/core_examples/cc13xx_cc26xx_sdk/kernel/nortos/lib/gcc/m4f/nortos_cc26x2x7.a(SwiP_nortos.c.obj)
                0x000000000000a6f8                SwiP_disable
 .text.SwiP_dispatch
                0x000000000000a714       0xd4 /project/staging/core_examples/cc13xx_cc26xx_sdk/kernel/nortos/lib/gcc/m4f/nortos_cc26x2x7.a(SwiP_nortos.c.obj)
                0x000000000000a714                SwiP_dispatch
 .text.SwiP_handleHwi
                0x000000000000a7e8       0x18 /project/staging/core_examples/cc13xx_cc26xx_sdk/kernel/nortos/lib/gcc/m4f/nortos_cc26x2x7.a(SwiP_nortos.c.obj)
 .text.SwiP_post
                0x000000000000a800       0x70 /project/staging/core_examples/cc13xx_cc26xx_sdk/kernel/nortos/lib/gcc/m4f/nortos_cc26x2x7.a(SwiP_nortos.c.obj)
                0x000000000000a800                SwiP_post
 .text.SwiP_restore
                0x000000000000a870       0x48 /project/staging/core_examples/cc13xx_cc26xx_sdk/kernel/nortos/lib/gcc/m4f/nortos_cc26x2x7.a(SwiP_nortos.c.obj)
                0x000000000000a870                SwiP_restore
 .text.doPrint  0x000000000000a8b8      0x4ac /project/staging/core_examples/cc13xx_cc26xx_sdk/kernel/nortos/lib/gcc/m4f/nortos_cc26x2x7.a(SystemP_nortos.c.obj)
 .text.SystemP_vsnprintf
                0x000000000000ad64        0x4 /project/staging/core_examples/cc13xx_cc26xx_sdk/kernel/nortos/lib/gcc/m4f/nortos_cc26x2x7.a(SystemP_nortos.c.obj)
                0x000000000000ad64                SystemP_vsnprintf
 .text.ClockP_doTick
                0x000000000000ad68        0xc /project/staging/core_examples/cc13xx_cc26xx_sdk/kernel/nortos/lib/gcc/m4f/nortos_cc26x2x7.a(ClockPTimer_nortos.c.obj)
                0x000000000000ad68                ClockP_doTick
 .text.ClockP_startup.part.0
                0x000000000000ad74       0x84 /project/staging/core_examples/cc13xx_cc26xx_sdk/kernel/nortos/lib/gcc/m4f/nortos_cc26x2x7.a(ClockPTimer_nortos.c.obj)
 .text.ClockP_workFuncDynamic
                0x000000000000adf8      0x150 /project/staging/core_examples/cc13xx_cc26xx_sdk/kernel/nortos/lib/gcc/m4f/nortos_cc26x2x7.a(ClockPTimer_nortos.c.obj)
                0x000000000000adf8                ClockP_workFuncDynamic
 .text.ClockP_Params_init
                0x000000000000af48       0x10 /project/staging/core_examples/cc13xx_cc26xx_sdk/kernel/nortos/lib/gcc/m4f/nortos_cc26x2x7.a(ClockPTimer_nortos.c.obj)
                0x000000000000af48                ClockP_Params_init
 .text.ClockP_startup
                0x000000000000af58       0x10 /project/staging/core_examples/cc13xx_cc26xx_sdk/kernel/nortos/lib/gcc/m4f/nortos_cc26x2x7.a(ClockPTimer_nortos.c.obj)
                0x000000000000af58                ClockP_startup
 .text.ClockP_getTicksUntilInterrupt
                0x000000000000af68       0x30 /project/staging/core_examples/cc13xx_cc26xx_sdk/kernel/nortos/lib/gcc/m4f/nortos_cc26x2x7.a(ClockPTimer_nortos.c.obj)
                0x000000000000af68                ClockP_getTicksUntilInterrupt
 .text.ClockP_add
                0x000000000000af98       0x20 /project/staging/core_examples/cc13xx_cc26xx_sdk/kernel/nortos/lib/gcc/m4f/nortos_cc26x2x7.a(ClockPTimer_nortos.c.obj)
                0x000000000000af98                ClockP_add
 .text.ClockP_destruct
                0x000000000000afb8       0x1c /project/staging/core_examples/cc13xx_cc26xx_sdk/kernel/nortos/lib/gcc/m4f/nortos_cc26x2x7.a(ClockPTimer_nortos.c.obj)
                0x000000000000afb8                ClockP_destruct
 .text.ClockP_start
                0x000000000000afd4       0x98 /project/staging/core_examples/cc13xx_cc26xx_sdk/kernel/nortos/lib/gcc/m4f/nortos_cc26x2x7.a(ClockPTimer_nortos.c.obj)
                0x000000000000afd4                ClockP_start
 .text.ClockP_construct
                0x000000000000b06c       0x58 /project/staging/core_examples/cc13xx_cc26xx_sdk/kernel/nortos/lib/gcc/m4f/nortos_cc26x2x7.a(ClockPTimer_nortos.c.obj)
                0x000000000000b06c                ClockP_construct
 .text.ClockP_stop
                0x000000000000b0c4        0x8 /project/staging/core_examples/cc13xx_cc26xx_sdk/kernel/nortos/lib/gcc/m4f/nortos_cc26x2x7.a(ClockPTimer_nortos.c.obj)
                0x000000000000b0c4                ClockP_stop
 .text.ClockP_setTimeout
                0x000000000000b0cc        0x4 /project/staging/core_examples/cc13xx_cc26xx_sdk/kernel/nortos/lib/gcc/m4f/nortos_cc26x2x7.a(ClockPTimer_nortos.c.obj)
                0x000000000000b0cc                ClockP_setTimeout
 .text.ClockP_isActive
                0x000000000000b0d0        0x4 /project/staging/core_examples/cc13xx_cc26xx_sdk/kernel/nortos/lib/gcc/m4f/nortos_cc26x2x7.a(ClockPTimer_nortos.c.obj)
                0x000000000000b0d0                ClockP_isActive
 .text.ClockP_getCpuFreq
                0x000000000000b0d4       0x10 /project/staging/core_examples/cc13xx_cc26xx_sdk/kernel/nortos/lib/gcc/m4f/nortos_cc26x2x7.a(ClockPTimer_nortos.c.obj)
                0x000000000000b0d4                ClockP_getCpuFreq
 .text.ClockP_getSystemTickPeriod
                0x000000000000b0e4        0xc /project/staging/core_examples/cc13xx_cc26xx_sdk/kernel/nortos/lib/gcc/m4f/nortos_cc26x2x7.a(ClockPTimer_nortos.c.obj)
                0x000000000000b0e4                ClockP_getSystemTickPeriod
 .text.ClockP_usleep
                0x000000000000b0f0       0x90 /project/staging/core_examples/cc13xx_cc26xx_sdk/kernel/nortos/lib/gcc/m4f/nortos_cc26x2x7.a(ClockPTimer_nortos.c.obj)
                0x000000000000b0f0                ClockP_usleep
 .text.QueueP_init
                0x000000000000b180        0x8 /project/staging/core_examples/cc13xx_cc26xx_sdk/kernel/nortos/lib/gcc/m4f/nortos_cc26x2x7.a(QueueP_nortos.c.obj)
                0x000000000000b180                QueueP_init
 .text.QueueP_empty
                0x000000000000b188        0xc /project/staging/core_examples/cc13xx_cc26xx_sdk/kernel/nortos/lib/gcc/m4f/nortos_cc26x2x7.a(QueueP_nortos.c.obj)
                0x000000000000b188                QueueP_empty
 .text.QueueP_get
                0x000000000000b194       0x1c /project/staging/core_examples/cc13xx_cc26xx_sdk/kernel/nortos/lib/gcc/m4f/nortos_cc26x2x7.a(QueueP_nortos.c.obj)
                0x000000000000b194                QueueP_get
 .text.QueueP_head
                0x000000000000b1b0        0x4 /project/staging/core_examples/cc13xx_cc26xx_sdk/kernel/nortos/lib/gcc/m4f/nortos_cc26x2x7.a(QueueP_nortos.c.obj)
                0x000000000000b1b0                QueueP_head
 .text.QueueP_next
                0x000000000000b1b4        0x4 /project/staging/core_examples/cc13xx_cc26xx_sdk/kernel/nortos/lib/gcc/m4f/nortos_cc26x2x7.a(QueueP_nortos.c.obj)
                0x000000000000b1b4                QueueP_next
 .text.QueueP_put
                0x000000000000b1b8       0x20 /project/staging/core_examples/cc13xx_cc26xx_sdk/kernel/nortos/lib/gcc/m4f/nortos_cc26x2x7.a(QueueP_nortos.c.obj)
                0x000000000000b1b8                QueueP_put
 .text.QueueP_remove
                0x000000000000b1d8       0x10 /project/staging/core_examples/cc13xx_cc26xx_sdk/kernel/nortos/lib/gcc/m4f/nortos_cc26x2x7.a(QueueP_nortos.c.obj)
                0x000000000000b1d8                QueueP_remove
 .text.HwiP_dispatch
                0x000000000000b1e8       0x1c /project/staging/core_examples/cc13xx_cc26xx_sdk/kernel/nortos/lib/gcc/m4f/nortos_cc26x2x7.a(HwiPCC26XX_nortos.c.obj)
 .text.HwiP_enable
                0x000000000000b204        0x4 /project/staging/core_examples/cc13xx_cc26xx_sdk/kernel/nortos/lib/gcc/m4f/nortos_cc26x2x7.a(HwiPCC26XX_nortos.c.obj)
                0x000000000000b204                HwiP_enable
 .text.HwiP_disable
                0x000000000000b208       0x10 /project/staging/core_examples/cc13xx_cc26xx_sdk/kernel/nortos/lib/gcc/m4f/nortos_cc26x2x7.a(HwiPCC26XX_nortos.c.obj)
                0x000000000000b208                HwiP_disable
 .text.HwiP_restore
                0x000000000000b218        0x8 /project/staging/core_examples/cc13xx_cc26xx_sdk/kernel/nortos/lib/gcc/m4f/nortos_cc26x2x7.a(HwiPCC26XX_nortos.c.obj)
                0x000000000000b218                HwiP_restore
 .text.HwiP_clearInterrupt
                0x000000000000b220        0xc /project/staging/core_examples/cc13xx_cc26xx_sdk/kernel/nortos/lib/gcc/m4f/nortos_cc26x2x7.a(HwiPCC26XX_nortos.c.obj)
                0x000000000000b220                HwiP_clearInterrupt
 .text.HwiP_destruct
                0x000000000000b22c       0x1c /project/staging/core_examples/cc13xx_cc26xx_sdk/kernel/nortos/lib/gcc/m4f/nortos_cc26x2x7.a(HwiPCC26XX_nortos.c.obj)
                0x000000000000b22c                HwiP_destruct
 .text.HwiP_disableInterrupt
                0x000000000000b248        0xc /project/staging/core_examples/cc13xx_cc26xx_sdk/kernel/nortos/lib/gcc/m4f/nortos_cc26x2x7.a(HwiPCC26XX_nortos.c.obj)
                0x000000000000b248                HwiP_disableInterrupt
 .text.HwiP_enableInterrupt
                0x000000000000b254        0xc /project/staging/core_examples/cc13xx_cc26xx_sdk/kernel/nortos/lib/gcc/m4f/nortos_cc26x2x7.a(HwiPCC26XX_nortos.c.obj)
                0x000000000000b254                HwiP_enableInterrupt
 .text.HwiP_interruptsEnabled
                0x000000000000b260       0x10 /project/staging/core_examples/cc13xx_cc26xx_sdk/kernel/nortos/lib/gcc/m4f/nortos_cc26x2x7.a(HwiPCC26XX_nortos.c.obj)
                0x000000000000b260                HwiP_interruptsEnabled
 .text.HwiP_construct
                0x000000000000b270       0x90 /project/staging/core_examples/cc13xx_cc26xx_sdk/kernel/nortos/lib/gcc/m4f/nortos_cc26x2x7.a(HwiPCC26XX_nortos.c.obj)
                0x000000000000b270                HwiP_construct
 .text.HwiP_Params_init
                0x000000000000b300       0x14 /project/staging/core_examples/cc13xx_cc26xx_sdk/kernel/nortos/lib/gcc/m4f/nortos_cc26x2x7.a(HwiPCC26XX_nortos.c.obj)
                0x000000000000b300                HwiP_Params_init
 .text.HwiP_post
                0x000000000000b314        0xc /project/staging/core_examples/cc13xx_cc26xx_sdk/kernel/nortos/lib/gcc/m4f/nortos_cc26x2x7.a(HwiPCC26XX_nortos.c.obj)
                0x000000000000b314                HwiP_post
 .text.HwiP_inISR
                0x000000000000b320       0x14 /project/staging/core_examples/cc13xx_cc26xx_sdk/kernel/nortos/lib/gcc/m4f/nortos_cc26x2x7.a(HwiPCC26XX_nortos.c.obj)
                0x000000000000b320                HwiP_inISR
 .text.PowerCC26XX_standbyPolicy
                0x000000000000b334       0xf0 /project/staging/core_examples/cc13xx_cc26xx_sdk/kernel/nortos/lib/gcc/m4f/nortos_cc26x2x7.a(PowerCC26X2_nortos.c.obj)
                0x000000000000b334                PowerCC26XX_standbyPolicy
 .text.PowerCC26XX_schedulerDisable
                0x000000000000b424       0x10 /project/staging/core_examples/cc13xx_cc26xx_sdk/kernel/nortos/lib/gcc/m4f/nortos_cc26x2x7.a(PowerCC26X2_nortos.c.obj)
                0x000000000000b424                PowerCC26XX_schedulerDisable
 .text.PowerCC26XX_schedulerRestore
                0x000000000000b434        0xc /project/staging/core_examples/cc13xx_cc26xx_sdk/kernel/nortos/lib/gcc/m4f/nortos_cc26x2x7.a(PowerCC26X2_nortos.c.obj)
                0x000000000000b434                PowerCC26XX_schedulerRestore
 .text.TimerP_dynamicStub
                0x000000000000b440       0x20 /project/staging/core_examples/cc13xx_cc26xx_sdk/kernel/nortos/lib/gcc/m4f/nortos_cc26x2x7.a(TimerPCC26XX_nortos.c.obj)
                0x000000000000b440                TimerP_dynamicStub
 .text.TimerP_Params_init
                0x000000000000b460       0x10 /project/staging/core_examples/cc13xx_cc26xx_sdk/kernel/nortos/lib/gcc/m4f/nortos_cc26x2x7.a(TimerPCC26XX_nortos.c.obj)
                0x000000000000b460                TimerP_Params_init
 .text.TimerP_construct
                0x000000000000b470      0x104 /project/staging/core_examples/cc13xx_cc26xx_sdk/kernel/nortos/lib/gcc/m4f/nortos_cc26x2x7.a(TimerPCC26XX_nortos.c.obj)
                0x000000000000b470                TimerP_construct
 .text.TimerP_getMaxTicks
                0x000000000000b574       0x28 /project/staging/core_examples/cc13xx_cc26xx_sdk/kernel/nortos/lib/gcc/m4f/nortos_cc26x2x7.a(TimerPCC26XX_nortos.c.obj)
                0x000000000000b574                TimerP_getMaxTicks
 .text.TimerP_setNextTick
                0x000000000000b59c       0x50 /project/staging/core_examples/cc13xx_cc26xx_sdk/kernel/nortos/lib/gcc/m4f/nortos_cc26x2x7.a(TimerPCC26XX_nortos.c.obj)
                0x000000000000b59c                TimerP_setNextTick
 .text.TimerP_getCount64
                0x000000000000b5ec        0xc /project/staging/core_examples/cc13xx_cc26xx_sdk/kernel/nortos/lib/gcc/m4f/nortos_cc26x2x7.a(TimerPCC26XX_nortos.c.obj)
                0x000000000000b5ec                TimerP_getCount64
 .text.TimerP_getCurrentTick
                0x000000000000b5f8       0x34 /project/staging/core_examples/cc13xx_cc26xx_sdk/kernel/nortos/lib/gcc/m4f/nortos_cc26x2x7.a(TimerPCC26XX_nortos.c.obj)
                0x000000000000b5f8                TimerP_getCurrentTick
 .text.resetISR
                0x000000000000b62c       0x10 /project/staging/core_examples/cc13xx_cc26xx_sdk/kernel/nortos/lib/gcc/m4f/nortos_cc26x2x7.a(startup_cc13x2_cc26x2_gcc.c.obj)
                0x000000000000b62c                resetISR
 .text.nmiISR   0x000000000000b63c        0x4 /project/staging/core_examples/cc13xx_cc26xx_sdk/kernel/nortos/lib/gcc/m4f/nortos_cc26x2x7.a(startup_cc13x2_cc26x2_gcc.c.obj)
 .text.faultISR
                0x000000000000b640        0x4 /project/staging/core_examples/cc13xx_cc26xx_sdk/kernel/nortos/lib/gcc/m4f/nortos_cc26x2x7.a(startup_cc13x2_cc26x2_gcc.c.obj)
 .text.busFaultHandler
                0x000000000000b644        0x4 /project/staging/core_examples/cc13xx_cc26xx_sdk/kernel/nortos/lib/gcc/m4f/nortos_cc26x2x7.a(startup_cc13x2_cc26x2_gcc.c.obj)
 .text.defaultHandler
                0x000000000000b648        0x4 /project/staging/core_examples/cc13xx_cc26xx_sdk/kernel/nortos/lib/gcc/m4f/nortos_cc26x2x7.a(startup_cc13x2_cc26x2_gcc.c.obj)
 .text.localProgramStart
                0x000000000000b64c       0x88 /project/staging/core_examples/cc13xx_cc26xx_sdk/kernel/nortos/lib/gcc/m4f/nortos_cc26x2x7.a(startup_cc13x2_cc26x2_gcc.c.obj)
                0x000000000000b64c                localProgramStart
 .text._fini    0x000000000000b6d4        0x4 /project/staging/core_examples/cc13xx_cc26xx_sdk/kernel/nortos/lib/gcc/m4f/nortos_cc26x2x7.a(startup_cc13x2_cc26x2_gcc.c.obj)
                0x000000000000b6d4                _fini
 .text.NOROM_CPUcpsid
                0x000000000000b6d8        0x8 /project/staging/core_examples/cc13xx_cc26xx_sdk/source/ti/devices/cc13x2x7_cc26x2x7/driverlib/bin/gcc/driverlib.lib(cpu.c.obj)
                0x000000000000b6d8                NOROM_CPUcpsid
 .text.NOROM_CPUprimask
                0x000000000000b6e0        0x8 /project/staging/core_examples/cc13xx_cc26xx_sdk/source/ti/devices/cc13x2x7_cc26x2x7/driverlib/bin/gcc/driverlib.lib(cpu.c.obj)
                0x000000000000b6e0                NOROM_CPUprimask
 .text.NOROM_CPUcpsie
                0x000000000000b6e8        0x8 /project/staging/core_examples/cc13xx_cc26xx_sdk/source/ti/devices/cc13x2x7_cc26x2x7/driverlib/bin/gcc/driverlib.lib(cpu.c.obj)
                0x000000000000b6e8                NOROM_CPUcpsie
 .text.NOROM_CPUdelay
                0x000000000000b6f0        0x8 /project/staging/core_examples/cc13xx_cc26xx_sdk/source/ti/devices/cc13x2x7_cc26x2x7/driverlib/bin/gcc/driverlib.lib(cpu.c.obj)
                0x000000000000b6f0                NOROM_CPUdelay
 .text.IntDefaultHandler
                0x000000000000b6f8        0x4 /project/staging/core_examples/cc13xx_cc26xx_sdk/source/ti/devices/cc13x2x7_cc26x2x7/driverlib/bin/gcc/driverlib.lib(interrupt.c.obj)
 .text.NOROM_IntRegister
                0x000000000000b6fc       0x38 /project/staging/core_examples/cc13xx_cc26xx_sdk/source/ti/devices/cc13x2x7_cc26x2x7/driverlib/bin/gcc/driverlib.lib(interrupt.c.obj)
                0x000000000000b6fc                NOROM_IntRegister
 .text.NOROM_IntUnregister
                0x000000000000b734       0x14 /project/staging/core_examples/cc13xx_cc26xx_sdk/source/ti/devices/cc13x2x7_cc26x2x7/driverlib/bin/gcc/driverlib.lib(interrupt.c.obj)
                0x000000000000b734                NOROM_IntUnregister
 .text.NOROM_OSCHF_TurnOnXosc
                0x000000000000b748       0x24 /project/staging/core_examples/cc13xx_cc26xx_sdk/source/ti/devices/cc13x2x7_cc26x2x7/driverlib/bin/gcc/driverlib.lib(osc.c.obj)
                0x000000000000b748                NOROM_OSCHF_TurnOnXosc
 .text.NOROM_OSCHF_AttemptToSwitchToXosc
                0x000000000000b76c       0x98 /project/staging/core_examples/cc13xx_cc26xx_sdk/source/ti/devices/cc13x2x7_cc26x2x7/driverlib/bin/gcc/driverlib.lib(osc.c.obj)
                0x000000000000b76c                NOROM_OSCHF_AttemptToSwitchToXosc
 .text.NOROM_OSCHF_SwitchToRcOscTurnOffXosc
                0x000000000000b804       0x70 /project/staging/core_examples/cc13xx_cc26xx_sdk/source/ti/devices/cc13x2x7_cc26x2x7/driverlib/bin/gcc/driverlib.lib(osc.c.obj)
                0x000000000000b804                NOROM_OSCHF_SwitchToRcOscTurnOffXosc
 .text.NOROM_OSC_HPOSCRelativeFrequencyOffsetGet
                0x000000000000b874       0x40 /project/staging/core_examples/cc13xx_cc26xx_sdk/source/ti/devices/cc13x2x7_cc26x2x7/driverlib/bin/gcc/driverlib.lib(osc.c.obj)
                0x000000000000b874                NOROM_OSC_HPOSCRelativeFrequencyOffsetGet
 .text.NOROM_PRCMPowerDomainsAllOff
                0x000000000000b8b4       0x94 /project/staging/core_examples/cc13xx_cc26xx_sdk/source/ti/devices/cc13x2x7_cc26x2x7/driverlib/bin/gcc/driverlib.lib(prcm.c.obj)
                0x000000000000b8b4                NOROM_PRCMPowerDomainsAllOff
 .text.NOROM_PRCMPowerDomainsAllOn
                0x000000000000b948       0x54 /project/staging/core_examples/cc13xx_cc26xx_sdk/source/ti/devices/cc13x2x7_cc26x2x7/driverlib/bin/gcc/driverlib.lib(prcm.c.obj)
                0x000000000000b948                NOROM_PRCMPowerDomainsAllOn
 .text.TrimAfterColdResetWakeupFromShutDown
                0x000000000000b99c       0xd0 /project/staging/core_examples/cc13xx_cc26xx_sdk/source/ti/devices/cc13x2x7_cc26x2x7/driverlib/bin/gcc/driverlib.lib(setup.c.obj)
 .text.NOROM_SetupTrimDevice
                0x000000000000ba6c       0xe4 /project/staging/core_examples/cc13xx_cc26xx_sdk/source/ti/devices/cc13x2x7_cc26x2x7/driverlib/bin/gcc/driverlib.lib(setup.c.obj)
                0x000000000000ba6c                NOROM_SetupTrimDevice
 .text.NOROM_SysCtrlIdle
                0x000000000000bb50       0x38 /project/staging/core_examples/cc13xx_cc26xx_sdk/source/ti/devices/cc13x2x7_cc26x2x7/driverlib/bin/gcc/driverlib.lib(sys_ctrl.c.obj)
                0x000000000000bb50                NOROM_SysCtrlIdle
 .text.NOROM_SysCtrlStandby
                0x000000000000bb88      0x110 /project/staging/core_examples/cc13xx_cc26xx_sdk/source/ti/devices/cc13x2x7_cc26x2x7/driverlib/bin/gcc/driverlib.lib(sys_ctrl.c.obj)
                0x000000000000bb88                NOROM_SysCtrlStandby
 .text.NOROM_AUXSYSIFOpModeChange
                0x000000000000bc98       0x40 /project/staging/core_examples/cc13xx_cc26xx_sdk/source/ti/devices/cc13x2x7_cc26x2x7/driverlib/bin/gcc/driverlib.lib(aux_sysif.c.obj)
                0x000000000000bc98                NOROM_AUXSYSIFOpModeChange
 .text.NOROM_ThisLibraryIsFor_CC13x2x7_CC26x2x7_HaltIfViolated
                0x000000000000bcd8       0x18 /project/staging/core_examples/cc13xx_cc26xx_sdk/source/ti/devices/cc13x2x7_cc26x2x7/driverlib/bin/gcc/driverlib.lib(chipinfo.c.obj)
                0x000000000000bcd8                NOROM_ThisLibraryIsFor_CC13x2x7_CC26x2x7_HaltIfViolated
 .text.malloc   0x000000000000bcf0       0x10 /home/developer/.conan/data/arm-none-eabi-gcc/9.2019.q4.major-0/library-msp/ga/package/44fcf6b9a7fb86b2586303e3db40189d3b511830/bin/../lib/gcc/arm-none-eabi/9.2.1/../../../../arm-none-eabi/lib/thumb/v7e-m+fp/hard/libc_nano.a(lib_a-malloc.o)
                0x000000000000bcf0                malloc
 .text.free     0x000000000000bd00       0x10 /home/developer/.conan/data/arm-none-eabi-gcc/9.2019.q4.major-0/library-msp/ga/package/44fcf6b9a7fb86b2586303e3db40189d3b511830/bin/../lib/gcc/arm-none-eabi/9.2.1/../../../../arm-none-eabi/lib/thumb/v7e-m+fp/hard/libc_nano.a(lib_a-malloc.o)
                0x000000000000bd00                free
 .text.memcpy   0x000000000000bd10       0x1c /home/developer/.conan/data/arm-none-eabi-gcc/9.2019.q4.major-0/library-msp/ga/package/44fcf6b9a7fb86b2586303e3db40189d3b511830/bin/../lib/gcc/arm-none-eabi/9.2.1/../../../../arm-none-eabi/lib/thumb/v7e-m+fp/hard/libc_nano.a(lib_a-memcpy-stub.o)
                0x000000000000bd10                memcpy
 .text.memset   0x000000000000bd2c       0x10 /home/developer/.conan/data/arm-none-eabi-gcc/9.2019.q4.major-0/library-msp/ga/package/44fcf6b9a7fb86b2586303e3db40189d3b511830/bin/../lib/gcc/arm-none-eabi/9.2.1/../../../../arm-none-eabi/lib/thumb/v7e-m+fp/hard/libc_nano.a(lib_a-memset.o)
                0x000000000000bd2c                memset
 .text._free_r  0x000000000000bd3c       0xa0 /home/developer/.conan/data/arm-none-eabi-gcc/9.2019.q4.major-0/library-msp/ga/package/44fcf6b9a7fb86b2586303e3db40189d3b511830/bin/../lib/gcc/arm-none-eabi/9.2.1/../../../../arm-none-eabi/lib/thumb/v7e-m+fp/hard/libc_nano.a(lib_a-nano-freer.o)
                0x000000000000bd3c                _free_r
 .text._malloc_r
                0x000000000000bddc       0xb4 /home/developer/.conan/data/arm-none-eabi-gcc/9.2019.q4.major-0/library-msp/ga/package/44fcf6b9a7fb86b2586303e3db40189d3b511830/bin/../lib/gcc/arm-none-eabi/9.2.1/../../../../arm-none-eabi/lib/thumb/v7e-m+fp/hard/libc_nano.a(lib_a-nano-mallocr.o)
                0x000000000000bddc                _malloc_r
 .text._sbrk_r  0x000000000000be90       0x20 /home/developer/.conan/data/arm-none-eabi-gcc/9.2019.q4.major-0/library-msp/ga/package/44fcf6b9a7fb86b2586303e3db40189d3b511830/bin/../lib/gcc/arm-none-eabi/9.2.1/../../../../arm-none-eabi/lib/thumb/v7e-m+fp/hard/libc_nano.a(lib_a-sbrkr.o)
                0x000000000000be90                _sbrk_r
 .text.strncpy  0x000000000000beb0       0x26 /home/developer/.conan/data/arm-none-eabi-gcc/9.2019.q4.major-0/library-msp/ga/package/44fcf6b9a7fb86b2586303e3db40189d3b511830/bin/../lib/gcc/arm-none-eabi/9.2.1/../../../../arm-none-eabi/lib/thumb/v7e-m+fp/hard/libc_nano.a(lib_a-strncpy.o)
                0x000000000000beb0                strncpy
 *fill*         0x000000000000bed6        0x2 
 .text.__malloc_lock
                0x000000000000bed8        0xc /home/developer/.conan/data/arm-none-eabi-gcc/9.2019.q4.major-0/library-msp/ga/package/44fcf6b9a7fb86b2586303e3db40189d3b511830/bin/../lib/gcc/arm-none-eabi/9.2.1/../../../../arm-none-eabi/lib/thumb/v7e-m+fp/hard/libc_nano.a(lib_a-mlock.o)
                0x000000000000bed8                __malloc_lock
 .text.__malloc_unlock
                0x000000000000bee4        0xc /home/developer/.conan/data/arm-none-eabi-gcc/9.2019.q4.major-0/library-msp/ga/package/44fcf6b9a7fb86b2586303e3db40189d3b511830/bin/../lib/gcc/arm-none-eabi/9.2.1/../../../../arm-none-eabi/lib/thumb/v7e-m+fp/hard/libc_nano.a(lib_a-mlock.o)
                0x000000000000bee4                __malloc_unlock
 .text.__retarget_lock_acquire_recursive
                0x000000000000bef0        0x2 /home/developer/.conan/data/arm-none-eabi-gcc/9.2019.q4.major-0/library-msp/ga/package/44fcf6b9a7fb86b2586303e3db40189d3b511830/bin/../lib/gcc/arm-none-eabi/9.2.1/../../../../arm-none-eabi/lib/thumb/v7e-m+fp/hard/libc_nano.a(lib_a-lock.o)
                0x000000000000bef0                __retarget_lock_acquire_recursive
 .text.__retarget_lock_release_recursive
                0x000000000000bef2        0x2 /home/developer/.conan/data/arm-none-eabi-gcc/9.2019.q4.major-0/library-msp/ga/package/44fcf6b9a7fb86b2586303e3db40189d3b511830/bin/../lib/gcc/arm-none-eabi/9.2.1/../../../../arm-none-eabi/lib/thumb/v7e-m+fp/hard/libc_nano.a(lib_a-lock.o)
                0x000000000000bef2                __retarget_lock_release_recursive
 .text._sbrk    0x000000000000bef4       0x1c /home/developer/.conan/data/arm-none-eabi-gcc/9.2019.q4.major-0/library-msp/ga/package/44fcf6b9a7fb86b2586303e3db40189d3b511830/bin/../lib/gcc/arm-none-eabi/9.2.1/../../../../arm-none-eabi/lib/thumb/v7e-m+fp/hard/libnosys.a(sbrk.o)
                0x000000000000bef4                _sbrk
                0x000000000000bf10                . = ALIGN (0x4)
 *(.ctors)
                0x000000000000bf10                . = ALIGN (0x4)
 *(.dtors)
                0x000000000000bf10                . = ALIGN (0x4)
                0x000000000000bf10                __init_array_start = .
 *(.init_array*)
                0x000000000000bf10                __init_array_end = .
 *(.init)
 *(.fini*)
                [!provide]                        PROVIDE (__etext = .)
                [!provide]                        PROVIDE (_etext = .)
                [!provide]                        PROVIDE (etext = .)

.glue_7         0x000000000000bf10        0x0
 .glue_7        0x000000000000bf10        0x0 linker stubs

.glue_7t        0x000000000000bf10        0x0
 .glue_7t       0x000000000000bf10        0x0 linker stubs

.vfp11_veneer   0x000000000000bf10        0x0
 .vfp11_veneer  0x000000000000bf10        0x0 linker stubs

.v4_bx          0x000000000000bf10        0x0
 .v4_bx         0x000000000000bf10        0x0 linker stubs

.iplt           0x000000000000bf10        0x0
 .iplt          0x000000000000bf10        0x0 spiffsexternal.obj

.rodata         0x000000000000bf10      0x4f0
 *(.rodata)
 *(.rodata.*)
 .rodata.mainThread.str1.4
                0x000000000000bf10      0x209 spiffsexternal.obj
 *fill*         0x000000000000c119        0x3 
 .rodata.message
                0x000000000000c11c       0x16 spiffsexternal.obj
                0x000000000000c11c                message
 *fill*         0x000000000000c132        0x2 
 .rodata.Display_config
                0x000000000000c134        0xc ti_drivers_config.obj
                0x000000000000c134                Display_config
 .rodata.Display_count
                0x000000000000c140        0x1 ti_drivers_config.obj
                0x000000000000c140                Display_count
 *fill*         0x000000000000c141        0x3 
 .rodata.GPIO_config
                0x000000000000c144       0x10 ti_drivers_config.obj
                0x000000000000c144                GPIO_config
 .rodata.GPIO_pinLowerBound
                0x000000000000c154        0x1 ti_drivers_config.obj
                0x000000000000c154                GPIO_pinLowerBound
 .rodata.GPIO_pinUpperBound
                0x000000000000c155        0x1 ti_drivers_config.obj
                0x000000000000c155                GPIO_pinUpperBound
 *fill*         0x000000000000c156        0x2 
 .rodata.NVS_config
                0x000000000000c158        0xc ti_drivers_config.obj
                0x000000000000c158                NVS_config
 .rodata.NVS_count
                0x000000000000c164        0x1 ti_drivers_config.obj
                0x000000000000c164                NVS_count
 *fill*         0x000000000000c165        0x3 
 .rodata.PowerCC26X2_config
                0x000000000000c168       0x14 ti_drivers_config.obj
                0x000000000000c168                PowerCC26X2_config
 .rodata.SPI_config
                0x000000000000c17c        0xc ti_drivers_config.obj
                0x000000000000c17c                SPI_config
 .rodata.SPI_count
                0x000000000000c188        0x1 ti_drivers_config.obj
                0x000000000000c188                SPI_count
 *fill*         0x000000000000c189        0x3 
 .rodata.UART2_config
                0x000000000000c18c        0x8 ti_drivers_config.obj
                0x000000000000c18c                UART2_config
 .rodata.UART2_count
                0x000000000000c194        0x1 ti_drivers_config.obj
                0x000000000000c194                UART2_count
 *fill*         0x000000000000c195        0x3 
 .rodata.UDMACC26XX_config
                0x000000000000c198        0x8 ti_drivers_config.obj
                0x000000000000c198                UDMACC26XX_config
 .rodata.displayUart2HWAttrs
                0x000000000000c1a0       0x14 ti_drivers_config.obj
                0x000000000000c1a0                displayUart2HWAttrs
 .rodata.nvsSPI25XHWAttrs
                0x000000000000c1b4       0x28 ti_drivers_config.obj
 .rodata.spiCC26X2DMAHWAttrs
                0x000000000000c1dc       0x40 ti_drivers_config.obj
                0x000000000000c1dc                spiCC26X2DMAHWAttrs
 .rodata.uart2CC26X2HWAttrs
                0x000000000000c21c       0x58 ti_drivers_config.obj
 .rodata.udmaCC26XXHWAttrs
                0x000000000000c274        0x8 ti_drivers_config.obj
                0x000000000000c274                udmaCC26XXHWAttrs
 .rodata.Display_defaultParams
                0x000000000000c27c        0x1 /project/staging/core_examples/cc13xx_cc26xx_sdk/source/ti/display/lib/gcc/m4f/display_cc26x2x7.a(Display.c.obj)
                0x000000000000c27c                Display_defaultParams
 *fill*         0x000000000000c27d        0x3 
 .rodata.DisplayUart2Min_fxnTable
                0x000000000000c280       0x20 /project/staging/core_examples/cc13xx_cc26xx_sdk/source/ti/display/lib/gcc/m4f/display_cc26x2x7.a(DisplayUart2.c.obj)
                0x000000000000c280                DisplayUart2Min_fxnTable
 .rodata.NVS_defaultParams
                0x000000000000c2a0        0x4 /project/staging/core_examples/cc13xx_cc26xx_sdk/source/ti/drivers/lib/gcc/m4f/drivers_cc26x2x7.a(NVS.c.obj)
                0x000000000000c2a0                NVS_defaultParams
 .rodata.NVSSPI25X_fxnTable
                0x000000000000c2a4       0x28 /project/staging/core_examples/cc13xx_cc26xx_sdk/source/ti/drivers/lib/gcc/m4f/drivers_cc26x2x7.a(NVSSPI25X.c.obj)
                0x000000000000c2a4                NVSSPI25X_fxnTable
 .rodata.resourceDB
                0x000000000000c2cc       0x54 /project/staging/core_examples/cc13xx_cc26xx_sdk/source/ti/drivers/lib/gcc/m4f/drivers_cc26x2x7.a(PowerCC26X2.c.obj)
                0x000000000000c2cc                resourceDB
 .rodata.SPI_defaultParams
                0x000000000000c320       0x20 /project/staging/core_examples/cc13xx_cc26xx_sdk/source/ti/drivers/lib/gcc/m4f/drivers_cc26x2x7.a(SPI.c.obj)
                0x000000000000c320                SPI_defaultParams
 .rodata.UART2_defaultParams
                0x000000000000c340       0x24 /project/staging/core_examples/cc13xx_cc26xx_sdk/source/ti/drivers/lib/gcc/m4f/drivers_cc26x2x7.a(UART2.c.obj)
                0x000000000000c340                UART2_defaultParams
 .rodata.dataLength
                0x000000000000c364        0x4 /project/staging/core_examples/cc13xx_cc26xx_sdk/source/ti/drivers/lib/gcc/m4f/drivers_cc26x2x7.a(UART2CC26X2.c.obj)
 .rodata.parityType
                0x000000000000c368        0x5 /project/staging/core_examples/cc13xx_cc26xx_sdk/source/ti/drivers/lib/gcc/m4f/drivers_cc26x2x7.a(UART2CC26X2.c.obj)
 *fill*         0x000000000000c36d        0x3 
 .rodata.rxFifoThreshold
                0x000000000000c370        0x5 /project/staging/core_examples/cc13xx_cc26xx_sdk/source/ti/drivers/lib/gcc/m4f/drivers_cc26x2x7.a(UART2CC26X2.c.obj)
 *fill*         0x000000000000c375        0x3 
 .rodata.stopBits
                0x000000000000c378        0x2 /project/staging/core_examples/cc13xx_cc26xx_sdk/source/ti/drivers/lib/gcc/m4f/drivers_cc26x2x7.a(UART2CC26X2.c.obj)
 *fill*         0x000000000000c37a        0x2 
 .rodata.txFifoThreshold
                0x000000000000c37c        0x5 /project/staging/core_examples/cc13xx_cc26xx_sdk/source/ti/drivers/lib/gcc/m4f/drivers_cc26x2x7.a(UART2CC26X2.c.obj)
 *fill*         0x000000000000c381        0x3 
 .rodata.SPICC26X2DMA_fxnTable
                0x000000000000c384       0x18 /project/staging/core_examples/cc13xx_cc26xx_sdk/source/ti/drivers/lib/gcc/m4f/drivers_cc26x2x7.a(SPICC26X2DMA.c.obj)
                0x000000000000c384                SPICC26X2DMA_fxnTable
 .rodata.dmaNullConfig
                0x000000000000c39c        0x8 /project/staging/core_examples/cc13xx_cc26xx_sdk/source/ti/drivers/lib/gcc/m4f/drivers_cc26x2x7.a(SPICC26X2DMA.c.obj)
 .rodata.dmaRxConfig
                0x000000000000c3a4        0x8 /project/staging/core_examples/cc13xx_cc26xx_sdk/source/ti/drivers/lib/gcc/m4f/drivers_cc26x2x7.a(SPICC26X2DMA.c.obj)
 .rodata.dmaTxConfig
                0x000000000000c3ac        0x8 /project/staging/core_examples/cc13xx_cc26xx_sdk/source/ti/drivers/lib/gcc/m4f/drivers_cc26x2x7.a(SPICC26X2DMA.c.obj)
 .rodata.frameFormat
                0x000000000000c3b4       0x18 /project/staging/core_examples/cc13xx_cc26xx_sdk/source/ti/drivers/lib/gcc/m4f/drivers_cc26x2x7.a(SPICC26X2DMA.c.obj)
 .rodata.SwiP_defaultParams
                0x000000000000c3cc       0x10 /project/staging/core_examples/cc13xx_cc26xx_sdk/kernel/nortos/lib/gcc/m4f/nortos_cc26x2x7.a(SwiP_nortos.c.obj)
 .rodata.doPrint.str1.4
                0x000000000000c3dc       0x19 /project/staging/core_examples/cc13xx_cc26xx_sdk/kernel/nortos/lib/gcc/m4f/nortos_cc26x2x7.a(SystemP_nortos.c.obj)
 *fill*         0x000000000000c3f5        0x3 
 .rodata.g_OpMode_to_order
                0x000000000000c3f8        0x4 /project/staging/core_examples/cc13xx_cc26xx_sdk/source/ti/devices/cc13x2x7_cc26x2x7/driverlib/bin/gcc/driverlib.lib(aux_sysif.c.obj)
 .rodata.g_Order_to_OpMode
                0x000000000000c3fc        0x4 /project/staging/core_examples/cc13xx_cc26xx_sdk/source/ti/devices/cc13x2x7_cc26x2x7/driverlib/bin/gcc/driverlib.lib(aux_sysif.c.obj)
 *(.timestampPFormat)

.data           0x0000000020001a50      0x274 load address 0x000000000000c400
                0x000000000000c400                __data_load__ = LOADADDR (.data)
                0x0000000020001a50                __data_start__ = .
 *(.data)
 *(.data.*)
 .data.gpioPinConfigs
                0x0000000020001a50       0x7c ti_drivers_config.obj
                0x0000000020001a50                gpioPinConfigs
 .data.PowerCC26X2_module
                0x0000000020001acc      0x174 /project/staging/core_examples/cc13xx_cc26xx_sdk/source/ti/drivers/lib/gcc/m4f/drivers_cc26x2x7.a(PowerCC26X2.c.obj)
                0x0000000020001acc                PowerCC26X2_module
 .data.PowerCC26X2_rtcSubSecInc
                0x0000000020001c40        0x4 /project/staging/core_examples/cc13xx_cc26xx_sdk/source/ti/drivers/lib/gcc/m4f/drivers_cc26x2x7.a(PowerCC26X2.c.obj)
 .data.SemaphoreP_defaultParams
                0x0000000020001c44        0x8 /project/staging/core_examples/cc13xx_cc26xx_sdk/kernel/nortos/lib/gcc/m4f/nortos_cc26x2x7.a(SemaphoreP_nortos.c.obj)
                0x0000000020001c44                SemaphoreP_defaultParams
 .data.ClockP_tickPeriod
                0x0000000020001c4c        0x4 /project/staging/core_examples/cc13xx_cc26xx_sdk/kernel/nortos/lib/gcc/m4f/nortos_cc26x2x7.a(ClockPTimer_nortos.c.obj)
                0x0000000020001c4c                ClockP_tickPeriod
 .data.HwiP_swiPIntNum
                0x0000000020001c50        0x4 /project/staging/core_examples/cc13xx_cc26xx_sdk/kernel/nortos/lib/gcc/m4f/nortos_cc26x2x7.a(HwiPCC26XX_nortos.c.obj)
                0x0000000020001c50                HwiP_swiPIntNum
 .data.TimerP_defaultParams
                0x0000000020001c54        0xc /project/staging/core_examples/cc13xx_cc26xx_sdk/kernel/nortos/lib/gcc/m4f/nortos_cc26x2x7.a(TimerPCC26XX_nortos.c.obj)
 .data._impure_ptr
                0x0000000020001c60        0x4 /home/developer/.conan/data/arm-none-eabi-gcc/9.2019.q4.major-0/library-msp/ga/package/44fcf6b9a7fb86b2586303e3db40189d3b511830/bin/../lib/gcc/arm-none-eabi/9.2.1/../../../../arm-none-eabi/lib/thumb/v7e-m+fp/hard/libc_nano.a(lib_a-impure.o)
                0x0000000020001c60                _impure_ptr
 .data.impure_data
                0x0000000020001c64       0x60 /home/developer/.conan/data/arm-none-eabi-gcc/9.2019.q4.major-0/library-msp/ga/package/44fcf6b9a7fb86b2586303e3db40189d3b511830/bin/../lib/gcc/arm-none-eabi/9.2.1/../../../../arm-none-eabi/lib/thumb/v7e-m+fp/hard/libc_nano.a(lib_a-impure.o)
                0x0000000020001cc4                . = ALIGN (0x4)
                0x0000000020001cc4                __data_end__ = .

.igot.plt       0x0000000020001cc4        0x0 load address 0x000000000000c674
 .igot.plt      0x0000000020001cc4        0x0 spiffsexternal.obj

.ARM.exidx      0x000000000000c674        0x8
                0x000000000000c674                __exidx_start = .
 *(.ARM.exidx* .gnu.linkonce.armexidx.*)
 .ARM.exidx     0x000000000000c674        0x8 /home/developer/.conan/data/arm-none-eabi-gcc/9.2019.q4.major-0/library-msp/ga/package/44fcf6b9a7fb86b2586303e3db40189d3b511830/bin/../lib/gcc/arm-none-eabi/9.2.1/thumb/v7e-m+fp/hard/libgcc.a(_udivmoddi4.o)
                0x000000000000c67c                __exidx_end = .

.ARM.extab
 *(.ARM.extab* .gnu.linkonce.armextab.*)

.nvs
 *(.nvs)

.ccfg           0x00000000000affa8       0x58
 *(.ccfg)
 .ccfg          0x00000000000affa8       0x58 ti_devices_config.obj
                0x00000000000affa8                __ccfg

.rel.dyn        0x00000000000b0000        0x0
 .rel.iplt      0x00000000000b0000        0x0 spiffsexternal.obj

.bss            0x0000000020001cc8     0x10c0
                0x0000000020001cc8                __bss_start__ = .
 *(.shbss)
 *(.bss)
 *(.bss.*)
 .bss.spiffsFileDescriptorCache
                0x0000000020001cc8       0xb0 spiffsexternal.obj
 .bss.spiffsReadWriteCache
                0x0000000020001d78      0x200 spiffsexternal.obj
 .bss.spiffsWorkBuffer
                0x0000000020001f78      0x200 spiffsexternal.obj
 .bss.displayUART2Buffer
                0x0000000020002178      0x400 ti_drivers_config.obj
 .bss.uart2RxRingBuffer0
                0x0000000020002578       0x20 ti_drivers_config.obj
 .bss.uart2TxRingBuffer0
                0x0000000020002598       0x20 ti_drivers_config.obj
 .bss.verifyBuf
                0x00000000200025b8      0x100 ti_drivers_config.obj
 .bss.isInitialized
                0x00000000200026b8        0x1 /project/staging/core_examples/cc13xx_cc26xx_sdk/source/ti/drivers/lib/gcc/m4f/drivers_cc26x2x7.a(NVS.c.obj)
 *fill*         0x00000000200026b9        0x3 
 .bss.spiCsnGpioIndex
                0x00000000200026bc        0x4 /project/staging/core_examples/cc13xx_cc26xx_sdk/source/ti/drivers/lib/gcc/m4f/drivers_cc26x2x7.a(NVSSPI25X.c.obj)
 .bss.spiHandle
                0x00000000200026c0        0x4 /project/staging/core_examples/cc13xx_cc26xx_sdk/source/ti/drivers/lib/gcc/m4f/drivers_cc26x2x7.a(NVSSPI25X.c.obj)
 .bss.spiHandleUsers
                0x00000000200026c4        0x4 /project/staging/core_examples/cc13xx_cc26xx_sdk/source/ti/drivers/lib/gcc/m4f/drivers_cc26x2x7.a(NVSSPI25X.c.obj)
 .bss.spiHandles
                0x00000000200026c8       0x10 /project/staging/core_examples/cc13xx_cc26xx_sdk/source/ti/drivers/lib/gcc/m4f/drivers_cc26x2x7.a(NVSSPI25X.c.obj)
 .bss.writeSem  0x00000000200026d8        0x4 /project/staging/core_examples/cc13xx_cc26xx_sdk/source/ti/drivers/lib/gcc/m4f/drivers_cc26x2x7.a(NVSSPI25X.c.obj)
 .bss.isInitialized
                0x00000000200026dc        0x1 /project/staging/core_examples/cc13xx_cc26xx_sdk/source/ti/drivers/lib/gcc/m4f/drivers_cc26x2x7.a(SPI.c.obj)
 *fill*         0x00000000200026dd        0x3 
 .bss.gpioHwi   0x00000000200026e0       0x1c /project/staging/core_examples/cc13xx_cc26xx_sdk/source/ti/drivers/lib/gcc/m4f/drivers_cc26x2x7.a(GPIOCC26X2.c.obj)
 .bss.initCalled
                0x00000000200026fc        0x1 /project/staging/core_examples/cc13xx_cc26xx_sdk/source/ti/drivers/lib/gcc/m4f/drivers_cc26x2x7.a(GPIOCC26X2.c.obj)
 .bss.SemaphoreP_initialized
                0x00000000200026fd        0x1 /project/staging/core_examples/cc13xx_cc26xx_sdk/kernel/nortos/lib/gcc/m4f/nortos_cc26x2x7.a(SemaphoreP_nortos.c.obj)
 .bss.doEnablePolicy
                0x00000000200026fe        0x1 /project/staging/core_examples/cc13xx_cc26xx_sdk/kernel/nortos/lib/gcc/m4f/nortos_cc26x2x7.a(SemaphoreP_nortos.c.obj)
 .bss.pendInProgress
                0x00000000200026ff        0x1 /project/staging/core_examples/cc13xx_cc26xx_sdk/kernel/nortos/lib/gcc/m4f/nortos_cc26x2x7.a(SemaphoreP_nortos.c.obj)
 .bss.SwiP_currentTrigger
                0x0000000020002700        0x4 /project/staging/core_examples/cc13xx_cc26xx_sdk/kernel/nortos/lib/gcc/m4f/nortos_cc26x2x7.a(SwiP_nortos.c.obj)
 .bss.SwiP_hwiStruct
                0x0000000020002704       0x1c /project/staging/core_examples/cc13xx_cc26xx_sdk/kernel/nortos/lib/gcc/m4f/nortos_cc26x2x7.a(SwiP_nortos.c.obj)
 .bss.SwiP_initialized
                0x0000000020002720        0x1 /project/staging/core_examples/cc13xx_cc26xx_sdk/kernel/nortos/lib/gcc/m4f/nortos_cc26x2x7.a(SwiP_nortos.c.obj)
 *fill*         0x0000000020002721        0x3 
 .bss.SwiP_lockState
                0x0000000020002724        0x4 /project/staging/core_examples/cc13xx_cc26xx_sdk/kernel/nortos/lib/gcc/m4f/nortos_cc26x2x7.a(SwiP_nortos.c.obj)
 .bss.SwiP_readyList
                0x0000000020002728       0x20 /project/staging/core_examples/cc13xx_cc26xx_sdk/kernel/nortos/lib/gcc/m4f/nortos_cc26x2x7.a(SwiP_nortos.c.obj)
 .bss.SwiP_readyMask
                0x0000000020002748        0x4 /project/staging/core_examples/cc13xx_cc26xx_sdk/kernel/nortos/lib/gcc/m4f/nortos_cc26x2x7.a(SwiP_nortos.c.obj)
 .bss.SwiP_schedulerRunning
                0x000000002000274c        0x1 /project/staging/core_examples/cc13xx_cc26xx_sdk/kernel/nortos/lib/gcc/m4f/nortos_cc26x2x7.a(SwiP_nortos.c.obj)
 *fill*         0x000000002000274d        0x3 
 .bss.ClockP_defaultParams
                0x0000000020002750        0xc /project/staging/core_examples/cc13xx_cc26xx_sdk/kernel/nortos/lib/gcc/m4f/nortos_cc26x2x7.a(ClockPTimer_nortos.c.obj)
 .bss.ClockP_initialized
                0x000000002000275c        0x1 /project/staging/core_examples/cc13xx_cc26xx_sdk/kernel/nortos/lib/gcc/m4f/nortos_cc26x2x7.a(ClockPTimer_nortos.c.obj)
 *fill*         0x000000002000275d        0x3 
 .bss.ClockP_module
                0x0000000020002760       0xa8 /project/staging/core_examples/cc13xx_cc26xx_sdk/kernel/nortos/lib/gcc/m4f/nortos_cc26x2x7.a(ClockPTimer_nortos.c.obj)
 .bss.HwiP_dispatchTable
                0x0000000020002808       0xd8 /project/staging/core_examples/cc13xx_cc26xx_sdk/kernel/nortos/lib/gcc/m4f/nortos_cc26x2x7.a(HwiPCC26XX_nortos.c.obj)
 .bss.PowerCC26X2_swiKey
                0x00000000200028e0        0x4 /project/staging/core_examples/cc13xx_cc26xx_sdk/kernel/nortos/lib/gcc/m4f/nortos_cc26x2x7.a(PowerCC26X2_nortos.c.obj)
 .bss.TimerP_handle
                0x00000000200028e4        0x4 /project/staging/core_examples/cc13xx_cc26xx_sdk/kernel/nortos/lib/gcc/m4f/nortos_cc26x2x7.a(TimerPCC26XX_nortos.c.obj)
 .bss.TimerP_hwiStruct
                0x00000000200028e8       0x1c /project/staging/core_examples/cc13xx_cc26xx_sdk/kernel/nortos/lib/gcc/m4f/nortos_cc26x2x7.a(TimerPCC26XX_nortos.c.obj)
 .bss.TimerP_initialized
                0x0000000020002904        0x1 /project/staging/core_examples/cc13xx_cc26xx_sdk/kernel/nortos/lib/gcc/m4f/nortos_cc26x2x7.a(TimerPCC26XX_nortos.c.obj)
 *fill*         0x0000000020002905        0x3 
 .bss._hposcCoeffs
                0x0000000020002908       0x10 /project/staging/core_examples/cc13xx_cc26xx_sdk/source/ti/devices/cc13x2x7_cc26x2x7/driverlib/bin/gcc/driverlib.lib(osc.c.obj)
                0x0000000020002908                _hposcCoeffs
 .bss.oscHfGlobals
                0x0000000020002918       0x14 /project/staging/core_examples/cc13xx_cc26xx_sdk/source/ti/devices/cc13x2x7_cc26x2x7/driverlib/bin/gcc/driverlib.lib(osc.c.obj)
 .bss.__malloc_free_list
                0x000000002000292c        0x4 /home/developer/.conan/data/arm-none-eabi-gcc/9.2019.q4.major-0/library-msp/ga/package/44fcf6b9a7fb86b2586303e3db40189d3b511830/bin/../lib/gcc/arm-none-eabi/9.2.1/../../../../arm-none-eabi/lib/thumb/v7e-m+fp/hard/libc_nano.a(lib_a-nano-mallocr.o)
                0x000000002000292c                __malloc_free_list
 .bss.__malloc_sbrk_start
                0x0000000020002930        0x4 /home/developer/.conan/data/arm-none-eabi-gcc/9.2019.q4.major-0/library-msp/ga/package/44fcf6b9a7fb86b2586303e3db40189d3b511830/bin/../lib/gcc/arm-none-eabi/9.2.1/../../../../arm-none-eabi/lib/thumb/v7e-m+fp/hard/libc_nano.a(lib_a-nano-mallocr.o)
                0x0000000020002930                __malloc_sbrk_start
 .bss.heap_end.5507
                0x0000000020002934        0x4 /home/developer/.conan/data/arm-none-eabi-gcc/9.2019.q4.major-0/library-msp/ga/package/44fcf6b9a7fb86b2586303e3db40189d3b511830/bin/../lib/gcc/arm-none-eabi/9.2.1/../../../../arm-none-eabi/lib/thumb/v7e-m+fp/hard/libnosys.a(sbrk.o)
 *(COMMON)
 COMMON         0x0000000020002938       0x9e spiffsexternal.obj
                0x0000000020002938                spiffsnvsData
                0x000000002000294c                fs
                0x00000000200029c0                readBuffer
 *fill*         0x00000000200029d6        0x2 
 COMMON         0x00000000200029d8      0x3a0 ti_drivers_config.obj
                0x00000000200029d8                uart2CC26X2Objects
                0x0000000020002b48                displayUart2Object
                0x0000000020002b54                spiCC26X2DMAObjects
                0x0000000020002c54                nvsSPI25XObjects
                0x0000000020002c60                gpioCallbackFunctions
                0x0000000020002cdc                udmaCC26XXObject
                0x0000000020002cfc                gpioUserArgs
 COMMON         0x0000000020002d78        0x4 /home/developer/.conan/data/arm-none-eabi-gcc/9.2019.q4.major-0/library-msp/ga/package/44fcf6b9a7fb86b2586303e3db40189d3b511830/bin/../lib/gcc/arm-none-eabi/9.2.1/../../../../arm-none-eabi/lib/thumb/v7e-m+fp/hard/libc_nano.a(lib_a-reent.o)
                0x0000000020002d78                errno
 COMMON         0x0000000020002d7c        0x9 /home/developer/.conan/data/arm-none-eabi-gcc/9.2019.q4.major-0/library-msp/ga/package/44fcf6b9a7fb86b2586303e3db40189d3b511830/bin/../lib/gcc/arm-none-eabi/9.2.1/../../../../arm-none-eabi/lib/thumb/v7e-m+fp/hard/libc_nano.a(lib_a-lock.o)
                0x0000000020002d7c                __lock___atexit_recursive_mutex
                0x0000000020002d7d                __lock___arc4random_mutex
                0x0000000020002d7e                __lock___env_recursive_mutex
                0x0000000020002d7f                __lock___sinit_recursive_mutex
                0x0000000020002d80                __lock___malloc_recursive_mutex
                0x0000000020002d81                __lock___at_quick_exit_mutex
                0x0000000020002d82                __lock___dd_hash_mutex
                0x0000000020002d83                __lock___tz_mutex
                0x0000000020002d84                __lock___sfp_recursive_mutex
                0x0000000020002d88                . = ALIGN (0x4)
 *fill*         0x0000000020002d85        0x3 
                0x0000000020002d88                __bss_end__ = .

.heap           0x0000000020002d88     0x4000
                0x0000000020002d88                __heap_start__ = .
                0x0000000020002d88                end = __heap_start__
                0x0000000020002d88                _end = end
                0x0000000020002d88                __end = end
                0x0000000020006d88                . = (. + HEAPSIZE)
 *fill*         0x0000000020002d88     0x4000 
 *(.heap)
                0x0000000020006d88                __heap_end__ = .
                0x0000000020006d88                __HeapLimit = __heap_end__

.stack          0x0000000020006d88      0x400
                0x0000000020006d88                _stack = .
                0x0000000020006d88                __stack = .
 *(.stack)
                0x0000000020007188                . = (. + STACKSIZE)
 *fill*         0x0000000020006d88      0x400 
                0x0000000020007188                _stack_end = .
                0x0000000020007188                __stack_end = .

.log_data
 *(.log_data)

.log_ptr
 *(.log_ptr*)
LOAD ti_utils_build_linker.cmd.genlibs
LOAD /project/staging/core_examples/cc13xx_cc26xx_sdk/source/third_party/spiffs/lib/gcc/m4f/spiffs_cc26xx.a
LOAD /project/staging/core_examples/cc13xx_cc26xx_sdk/source/ti/display/lib/gcc/m4f/display_cc26x2x7.a
LOAD /project/staging/core_examples/cc13xx_cc26xx_sdk/source/ti/drivers/lib/gcc/m4f/drivers_cc26x2x7.a
LOAD /project/staging/core_examples/cc13xx_cc26xx_sdk/source/ti/grlib/lib/gcc/m4f/grlib.a
LOAD /project/staging/core_examples/cc13xx_cc26xx_sdk/kernel/nortos/lib/gcc/m4f/nortos_cc26x2x7.a
LOAD /project/staging/core_examples/cc13xx_cc26xx_sdk/source/ti/devices/cc13x2x7_cc26x2x7/driverlib/bin/gcc/driverlib.lib
LOAD /home/developer/.conan/data/arm-none-eabi-gcc/9.2019.q4.major-0/library-msp/ga/package/44fcf6b9a7fb86b2586303e3db40189d3b511830/bin/../lib/gcc/arm-none-eabi/9.2.1/thumb/v7e-m+fp/hard/libgcc.a
LOAD /home/developer/.conan/data/arm-none-eabi-gcc/9.2019.q4.major-0/library-msp/ga/package/44fcf6b9a7fb86b2586303e3db40189d3b511830/bin/../lib/gcc/arm-none-eabi/9.2.1/../../../../arm-none-eabi/lib/thumb/v7e-m+fp/hard/libc_nano.a
LOAD /home/developer/.conan/data/arm-none-eabi-gcc/9.2019.q4.major-0/library-msp/ga/package/44fcf6b9a7fb86b2586303e3db40189d3b511830/bin/../lib/gcc/arm-none-eabi/9.2.1/../../../../arm-none-eabi/lib/thumb/v7e-m+fp/hard/libm.a
LOAD /home/developer/.conan/data/arm-none-eabi-gcc/9.2019.q4.major-0/library-msp/ga/package/44fcf6b9a7fb86b2586303e3db40189d3b511830/bin/../lib/gcc/arm-none-eabi/9.2.1/../../../../arm-none-eabi/lib/thumb/v7e-m+fp/hard/libnosys.a
START GROUP
LOAD /home/developer/.conan/data/arm-none-eabi-gcc/9.2019.q4.major-0/library-msp/ga/package/44fcf6b9a7fb86b2586303e3db40189d3b511830/bin/../lib/gcc/arm-none-eabi/9.2.1/thumb/v7e-m+fp/hard/libgcc.a
LOAD /home/developer/.conan/data/arm-none-eabi-gcc/9.2019.q4.major-0/library-msp/ga/package/44fcf6b9a7fb86b2586303e3db40189d3b511830/bin/../lib/gcc/arm-none-eabi/9.2.1/../../../../arm-none-eabi/lib/thumb/v7e-m+fp/hard/libc_nano.a
END GROUP
START GROUP
LOAD /home/developer/.conan/data/arm-none-eabi-gcc/9.2019.q4.major-0/library-msp/ga/package/44fcf6b9a7fb86b2586303e3db40189d3b511830/bin/../lib/gcc/arm-none-eabi/9.2.1/thumb/v7e-m+fp/hard/libgcc.a
LOAD /home/developer/.conan/data/arm-none-eabi-gcc/9.2019.q4.major-0/library-msp/ga/package/44fcf6b9a7fb86b2586303e3db40189d3b511830/bin/../lib/gcc/arm-none-eabi/9.2.1/../../../../arm-none-eabi/lib/thumb/v7e-m+fp/hard/libc_nano.a
END GROUP
OUTPUT(spiffsexternal.out elf32-littlearm)

.debug_info     0x0000000000000000    0x3c4f6
 .debug_info    0x0000000000000000     0x1522 spiffsexternal.obj
 .debug_info    0x0000000000001522       0x82 main_nortos.obj
 .debug_info    0x00000000000015a4      0x1d0 ti_devices_config.obj
 .debug_info    0x0000000000001774     0x1fdc ti_drivers_config.obj
 .debug_info    0x0000000000003750     0x46c2 /project/staging/core_examples/cc13xx_cc26xx_sdk/source/third_party/spiffs/lib/gcc/m4f/spiffs_cc26xx.a(spiffs_hydrogen.c.obj)
 .debug_info    0x0000000000007e12     0x64ee /project/staging/core_examples/cc13xx_cc26xx_sdk/source/third_party/spiffs/lib/gcc/m4f/spiffs_cc26xx.a(spiffs_nucleus.c.obj)
 .debug_info    0x000000000000e300     0x1544 /project/staging/core_examples/cc13xx_cc26xx_sdk/source/third_party/spiffs/lib/gcc/m4f/spiffs_cc26xx.a(SPIFFSNVS.c.obj)
 .debug_info    0x000000000000f844     0x1ab9 /project/staging/core_examples/cc13xx_cc26xx_sdk/source/third_party/spiffs/lib/gcc/m4f/spiffs_cc26xx.a(spiffs_cache.c.obj)
 .debug_info    0x00000000000112fd     0x1bc7 /project/staging/core_examples/cc13xx_cc26xx_sdk/source/third_party/spiffs/lib/gcc/m4f/spiffs_cc26xx.a(spiffs_gc.c.obj)
 .debug_info    0x0000000000012ec4      0x6dd /project/staging/core_examples/cc13xx_cc26xx_sdk/source/ti/display/lib/gcc/m4f/display_cc26x2x7.a(Display.c.obj)
 .debug_info    0x00000000000135a1     0x1898 /project/staging/core_examples/cc13xx_cc26xx_sdk/source/ti/display/lib/gcc/m4f/display_cc26x2x7.a(DisplayUart2.c.obj)
 .debug_info    0x0000000000014e39      0xbff /project/staging/core_examples/cc13xx_cc26xx_sdk/source/ti/drivers/lib/gcc/m4f/drivers_cc26x2x7.a(GPIO.c.obj)
 .debug_info    0x0000000000015a38     0x11f7 /project/staging/core_examples/cc13xx_cc26xx_sdk/source/ti/drivers/lib/gcc/m4f/drivers_cc26x2x7.a(GPIOCC26XX.c.obj)
 .debug_info    0x0000000000016c2f     0x10fe /project/staging/core_examples/cc13xx_cc26xx_sdk/source/ti/drivers/lib/gcc/m4f/drivers_cc26x2x7.a(NVS.c.obj)
 .debug_info    0x0000000000017d2d     0x2c78 /project/staging/core_examples/cc13xx_cc26xx_sdk/source/ti/drivers/lib/gcc/m4f/drivers_cc26x2x7.a(NVSSPI25X.c.obj)
 .debug_info    0x000000000001a9a5     0x3088 /project/staging/core_examples/cc13xx_cc26xx_sdk/source/ti/drivers/lib/gcc/m4f/drivers_cc26x2x7.a(PowerCC26X2.c.obj)
 .debug_info    0x000000000001da2d     0x1278 /project/staging/core_examples/cc13xx_cc26xx_sdk/source/ti/drivers/lib/gcc/m4f/drivers_cc26x2x7.a(PowerCC26X2_calibrateRCOSC.c.obj)
 .debug_info    0x000000000001eca5      0xfb8 /project/staging/core_examples/cc13xx_cc26xx_sdk/source/ti/drivers/lib/gcc/m4f/drivers_cc26x2x7.a(SPI.c.obj)
 .debug_info    0x000000000001fc5d     0x2145 /project/staging/core_examples/cc13xx_cc26xx_sdk/source/ti/drivers/lib/gcc/m4f/drivers_cc26x2x7.a(UART2.c.obj)
 .debug_info    0x0000000000021da2     0x3fd9 /project/staging/core_examples/cc13xx_cc26xx_sdk/source/ti/drivers/lib/gcc/m4f/drivers_cc26x2x7.a(UART2CC26X2.c.obj)
 .debug_info    0x0000000000025d7b      0xd8c /project/staging/core_examples/cc13xx_cc26xx_sdk/source/ti/drivers/lib/gcc/m4f/drivers_cc26x2x7.a(GPIOCC26X2.c.obj)
 .debug_info    0x0000000000026b07      0x513 /project/staging/core_examples/cc13xx_cc26xx_sdk/source/ti/drivers/lib/gcc/m4f/drivers_cc26x2x7.a(PowerCC26X2_calibrateRCOSC_helpers.c.obj)
 .debug_info    0x000000000002701a      0xf3f /project/staging/core_examples/cc13xx_cc26xx_sdk/source/ti/drivers/lib/gcc/m4f/drivers_cc26x2x7.a(PowerCC26X2_helpers.c.obj)
 .debug_info    0x0000000000027f59     0x2d68 /project/staging/core_examples/cc13xx_cc26xx_sdk/source/ti/drivers/lib/gcc/m4f/drivers_cc26x2x7.a(SPICC26X2DMA.c.obj)
 .debug_info    0x000000000002acc1      0xc58 /project/staging/core_examples/cc13xx_cc26xx_sdk/source/ti/drivers/lib/gcc/m4f/drivers_cc26x2x7.a(List.c.obj)
 .debug_info    0x000000000002b919      0x811 /project/staging/core_examples/cc13xx_cc26xx_sdk/source/ti/drivers/lib/gcc/m4f/drivers_cc26x2x7.a(RingBuf.c.obj)
 .debug_info    0x000000000002c12a      0x645 /project/staging/core_examples/cc13xx_cc26xx_sdk/source/ti/drivers/lib/gcc/m4f/drivers_cc26x2x7.a(UDMACC26XX.c.obj)
 .debug_info    0x000000000002c76f      0x1ec /project/staging/core_examples/cc13xx_cc26xx_sdk/kernel/nortos/lib/gcc/m4f/nortos_cc26x2x7.a(NoRTOS.c.obj)
 .debug_info    0x000000000002c95b      0xbb4 /project/staging/core_examples/cc13xx_cc26xx_sdk/kernel/nortos/lib/gcc/m4f/nortos_cc26x2x7.a(MutexP_nortos.c.obj)
 .debug_info    0x000000000002d50f     0x1499 /project/staging/core_examples/cc13xx_cc26xx_sdk/kernel/nortos/lib/gcc/m4f/nortos_cc26x2x7.a(SemaphoreP_nortos.c.obj)
 .debug_info    0x000000000002e9a8     0x1a3c /project/staging/core_examples/cc13xx_cc26xx_sdk/kernel/nortos/lib/gcc/m4f/nortos_cc26x2x7.a(SwiP_nortos.c.obj)
 .debug_info    0x00000000000303e4     0x11b4 /project/staging/core_examples/cc13xx_cc26xx_sdk/kernel/nortos/lib/gcc/m4f/nortos_cc26x2x7.a(SystemP_nortos.c.obj)
 .debug_info    0x0000000000031598     0x215d /project/staging/core_examples/cc13xx_cc26xx_sdk/kernel/nortos/lib/gcc/m4f/nortos_cc26x2x7.a(ClockPTimer_nortos.c.obj)
 .debug_info    0x00000000000336f5      0x4c9 /project/staging/core_examples/cc13xx_cc26xx_sdk/kernel/nortos/lib/gcc/m4f/nortos_cc26x2x7.a(QueueP_nortos.c.obj)
 .debug_info    0x0000000000033bbe     0x17ba /project/staging/core_examples/cc13xx_cc26xx_sdk/kernel/nortos/lib/gcc/m4f/nortos_cc26x2x7.a(HwiPCC26XX_nortos.c.obj)
 .debug_info    0x0000000000035378     0x1053 /project/staging/core_examples/cc13xx_cc26xx_sdk/kernel/nortos/lib/gcc/m4f/nortos_cc26x2x7.a(PowerCC26X2_nortos.c.obj)
 .debug_info    0x00000000000363cb     0x1854 /project/staging/core_examples/cc13xx_cc26xx_sdk/kernel/nortos/lib/gcc/m4f/nortos_cc26x2x7.a(TimerPCC26XX_nortos.c.obj)
 .debug_info    0x0000000000037c1f      0xb80 /project/staging/core_examples/cc13xx_cc26xx_sdk/kernel/nortos/lib/gcc/m4f/nortos_cc26x2x7.a(startup_cc13x2_cc26x2_gcc.c.obj)
 .debug_info    0x000000000003879f      0x167 /project/staging/core_examples/cc13xx_cc26xx_sdk/source/ti/devices/cc13x2x7_cc26x2x7/driverlib/bin/gcc/driverlib.lib(cpu.c.obj)
 .debug_info    0x0000000000038906      0x3b1 /project/staging/core_examples/cc13xx_cc26xx_sdk/source/ti/devices/cc13x2x7_cc26x2x7/driverlib/bin/gcc/driverlib.lib(interrupt.c.obj)
 .debug_info    0x0000000000038cb7     0x23d8 /project/staging/core_examples/cc13xx_cc26xx_sdk/source/ti/devices/cc13x2x7_cc26x2x7/driverlib/bin/gcc/driverlib.lib(osc.c.obj)
 .debug_info    0x000000000003b08f      0x5f5 /project/staging/core_examples/cc13xx_cc26xx_sdk/source/ti/devices/cc13x2x7_cc26x2x7/driverlib/bin/gcc/driverlib.lib(prcm.c.obj)
 .debug_info    0x000000000003b684      0x2b2 /project/staging/core_examples/cc13xx_cc26xx_sdk/source/ti/devices/cc13x2x7_cc26x2x7/driverlib/bin/gcc/driverlib.lib(setup.c.obj)
 .debug_info    0x000000000003b936      0x4f9 /project/staging/core_examples/cc13xx_cc26xx_sdk/source/ti/devices/cc13x2x7_cc26x2x7/driverlib/bin/gcc/driverlib.lib(sys_ctrl.c.obj)
 .debug_info    0x000000000003be2f      0x137 /project/staging/core_examples/cc13xx_cc26xx_sdk/source/ti/devices/cc13x2x7_cc26x2x7/driverlib/bin/gcc/driverlib.lib(aux_sysif.c.obj)
 .debug_info    0x000000000003bf66      0x590 /project/staging/core_examples/cc13xx_cc26xx_sdk/source/ti/devices/cc13x2x7_cc26x2x7/driverlib/bin/gcc/driverlib.lib(chipinfo.c.obj)

.debug_abbrev   0x0000000000000000     0x9a95
 .debug_abbrev  0x0000000000000000      0x270 spiffsexternal.obj
 .debug_abbrev  0x0000000000000270       0x43 main_nortos.obj
 .debug_abbrev  0x00000000000002b3       0x7e ti_devices_config.obj
 .debug_abbrev  0x0000000000000331      0x34b ti_drivers_config.obj
 .debug_abbrev  0x000000000000067c      0x51f /project/staging/core_examples/cc13xx_cc26xx_sdk/source/third_party/spiffs/lib/gcc/m4f/spiffs_cc26xx.a(spiffs_hydrogen.c.obj)
 .debug_abbrev  0x0000000000000b9b      0x5fd /project/staging/core_examples/cc13xx_cc26xx_sdk/source/third_party/spiffs/lib/gcc/m4f/spiffs_cc26xx.a(spiffs_nucleus.c.obj)
 .debug_abbrev  0x0000000000001198      0x2e4 /project/staging/core_examples/cc13xx_cc26xx_sdk/source/third_party/spiffs/lib/gcc/m4f/spiffs_cc26xx.a(SPIFFSNVS.c.obj)
 .debug_abbrev  0x000000000000147c      0x4a2 /project/staging/core_examples/cc13xx_cc26xx_sdk/source/third_party/spiffs/lib/gcc/m4f/spiffs_cc26xx.a(spiffs_cache.c.obj)
 .debug_abbrev  0x000000000000191e      0x3e8 /project/staging/core_examples/cc13xx_cc26xx_sdk/source/third_party/spiffs/lib/gcc/m4f/spiffs_cc26xx.a(spiffs_gc.c.obj)
 .debug_abbrev  0x0000000000001d06      0x239 /project/staging/core_examples/cc13xx_cc26xx_sdk/source/ti/display/lib/gcc/m4f/display_cc26x2x7.a(Display.c.obj)
 .debug_abbrev  0x0000000000001f3f      0x4b9 /project/staging/core_examples/cc13xx_cc26xx_sdk/source/ti/display/lib/gcc/m4f/display_cc26x2x7.a(DisplayUart2.c.obj)
 .debug_abbrev  0x00000000000023f8      0x2d8 /project/staging/core_examples/cc13xx_cc26xx_sdk/source/ti/drivers/lib/gcc/m4f/drivers_cc26x2x7.a(GPIO.c.obj)
 .debug_abbrev  0x00000000000026d0      0x3bf /project/staging/core_examples/cc13xx_cc26xx_sdk/source/ti/drivers/lib/gcc/m4f/drivers_cc26x2x7.a(GPIOCC26XX.c.obj)
 .debug_abbrev  0x0000000000002a8f      0x2f5 /project/staging/core_examples/cc13xx_cc26xx_sdk/source/ti/drivers/lib/gcc/m4f/drivers_cc26x2x7.a(NVS.c.obj)
 .debug_abbrev  0x0000000000002d84      0x582 /project/staging/core_examples/cc13xx_cc26xx_sdk/source/ti/drivers/lib/gcc/m4f/drivers_cc26x2x7.a(NVSSPI25X.c.obj)
 .debug_abbrev  0x0000000000003306      0x6c6 /project/staging/core_examples/cc13xx_cc26xx_sdk/source/ti/drivers/lib/gcc/m4f/drivers_cc26x2x7.a(PowerCC26X2.c.obj)
 .debug_abbrev  0x00000000000039cc      0x3e9 /project/staging/core_examples/cc13xx_cc26xx_sdk/source/ti/drivers/lib/gcc/m4f/drivers_cc26x2x7.a(PowerCC26X2_calibrateRCOSC.c.obj)
 .debug_abbrev  0x0000000000003db5      0x2fc /project/staging/core_examples/cc13xx_cc26xx_sdk/source/ti/drivers/lib/gcc/m4f/drivers_cc26x2x7.a(SPI.c.obj)
 .debug_abbrev  0x00000000000040b1      0x45a /project/staging/core_examples/cc13xx_cc26xx_sdk/source/ti/drivers/lib/gcc/m4f/drivers_cc26x2x7.a(UART2.c.obj)
 .debug_abbrev  0x000000000000450b      0x58b /project/staging/core_examples/cc13xx_cc26xx_sdk/source/ti/drivers/lib/gcc/m4f/drivers_cc26x2x7.a(UART2CC26X2.c.obj)
 .debug_abbrev  0x0000000000004a96      0x34c /project/staging/core_examples/cc13xx_cc26xx_sdk/source/ti/drivers/lib/gcc/m4f/drivers_cc26x2x7.a(GPIOCC26X2.c.obj)
 .debug_abbrev  0x0000000000004de2      0x197 /project/staging/core_examples/cc13xx_cc26xx_sdk/source/ti/drivers/lib/gcc/m4f/drivers_cc26x2x7.a(PowerCC26X2_calibrateRCOSC_helpers.c.obj)
 .debug_abbrev  0x0000000000004f79      0x417 /project/staging/core_examples/cc13xx_cc26xx_sdk/source/ti/drivers/lib/gcc/m4f/drivers_cc26x2x7.a(PowerCC26X2_helpers.c.obj)
 .debug_abbrev  0x0000000000005390      0x56d /project/staging/core_examples/cc13xx_cc26xx_sdk/source/ti/drivers/lib/gcc/m4f/drivers_cc26x2x7.a(SPICC26X2DMA.c.obj)
 .debug_abbrev  0x00000000000058fd      0x27b /project/staging/core_examples/cc13xx_cc26xx_sdk/source/ti/drivers/lib/gcc/m4f/drivers_cc26x2x7.a(List.c.obj)
 .debug_abbrev  0x0000000000005b78      0x249 /project/staging/core_examples/cc13xx_cc26xx_sdk/source/ti/drivers/lib/gcc/m4f/drivers_cc26x2x7.a(RingBuf.c.obj)
 .debug_abbrev  0x0000000000005dc1      0x2b5 /project/staging/core_examples/cc13xx_cc26xx_sdk/source/ti/drivers/lib/gcc/m4f/drivers_cc26x2x7.a(UDMACC26XX.c.obj)
 .debug_abbrev  0x0000000000006076      0x116 /project/staging/core_examples/cc13xx_cc26xx_sdk/kernel/nortos/lib/gcc/m4f/nortos_cc26x2x7.a(NoRTOS.c.obj)
 .debug_abbrev  0x000000000000618c      0x2db /project/staging/core_examples/cc13xx_cc26xx_sdk/kernel/nortos/lib/gcc/m4f/nortos_cc26x2x7.a(MutexP_nortos.c.obj)
 .debug_abbrev  0x0000000000006467      0x470 /project/staging/core_examples/cc13xx_cc26xx_sdk/kernel/nortos/lib/gcc/m4f/nortos_cc26x2x7.a(SemaphoreP_nortos.c.obj)
 .debug_abbrev  0x00000000000068d7      0x523 /project/staging/core_examples/cc13xx_cc26xx_sdk/kernel/nortos/lib/gcc/m4f/nortos_cc26x2x7.a(SwiP_nortos.c.obj)
 .debug_abbrev  0x0000000000006dfa      0x449 /project/staging/core_examples/cc13xx_cc26xx_sdk/kernel/nortos/lib/gcc/m4f/nortos_cc26x2x7.a(SystemP_nortos.c.obj)
 .debug_abbrev  0x0000000000007243      0x546 /project/staging/core_examples/cc13xx_cc26xx_sdk/kernel/nortos/lib/gcc/m4f/nortos_cc26x2x7.a(ClockPTimer_nortos.c.obj)
 .debug_abbrev  0x0000000000007789      0x1f0 /project/staging/core_examples/cc13xx_cc26xx_sdk/kernel/nortos/lib/gcc/m4f/nortos_cc26x2x7.a(QueueP_nortos.c.obj)
 .debug_abbrev  0x0000000000007979      0x53c /project/staging/core_examples/cc13xx_cc26xx_sdk/kernel/nortos/lib/gcc/m4f/nortos_cc26x2x7.a(HwiPCC26XX_nortos.c.obj)
 .debug_abbrev  0x0000000000007eb5      0x339 /project/staging/core_examples/cc13xx_cc26xx_sdk/kernel/nortos/lib/gcc/m4f/nortos_cc26x2x7.a(PowerCC26X2_nortos.c.obj)
 .debug_abbrev  0x00000000000081ee      0x58f /project/staging/core_examples/cc13xx_cc26xx_sdk/kernel/nortos/lib/gcc/m4f/nortos_cc26x2x7.a(TimerPCC26XX_nortos.c.obj)
 .debug_abbrev  0x000000000000877d      0x341 /project/staging/core_examples/cc13xx_cc26xx_sdk/kernel/nortos/lib/gcc/m4f/nortos_cc26x2x7.a(startup_cc13x2_cc26x2_gcc.c.obj)
 .debug_abbrev  0x0000000000008abe       0xe6 /project/staging/core_examples/cc13xx_cc26xx_sdk/source/ti/devices/cc13x2x7_cc26x2x7/driverlib/bin/gcc/driverlib.lib(cpu.c.obj)
 .debug_abbrev  0x0000000000008ba4      0x174 /project/staging/core_examples/cc13xx_cc26xx_sdk/source/ti/devices/cc13x2x7_cc26x2x7/driverlib/bin/gcc/driverlib.lib(interrupt.c.obj)
 .debug_abbrev  0x0000000000008d18      0x54a /project/staging/core_examples/cc13xx_cc26xx_sdk/source/ti/devices/cc13x2x7_cc26x2x7/driverlib/bin/gcc/driverlib.lib(osc.c.obj)
 .debug_abbrev  0x0000000000009262      0x1c0 /project/staging/core_examples/cc13xx_cc26xx_sdk/source/ti/devices/cc13x2x7_cc26x2x7/driverlib/bin/gcc/driverlib.lib(prcm.c.obj)
 .debug_abbrev  0x0000000000009422      0x1cc /project/staging/core_examples/cc13xx_cc26xx_sdk/source/ti/devices/cc13x2x7_cc26x2x7/driverlib/bin/gcc/driverlib.lib(setup.c.obj)
 .debug_abbrev  0x00000000000095ee      0x240 /project/staging/core_examples/cc13xx_cc26xx_sdk/source/ti/devices/cc13x2x7_cc26x2x7/driverlib/bin/gcc/driverlib.lib(sys_ctrl.c.obj)
 .debug_abbrev  0x000000000000982e       0xa2 /project/staging/core_examples/cc13xx_cc26xx_sdk/source/ti/devices/cc13x2x7_cc26x2x7/driverlib/bin/gcc/driverlib.lib(aux_sysif.c.obj)
 .debug_abbrev  0x00000000000098d0      0x1c5 /project/staging/core_examples/cc13xx_cc26xx_sdk/source/ti/devices/cc13x2x7_cc26x2x7/driverlib/bin/gcc/driverlib.lib(chipinfo.c.obj)

.debug_loc      0x0000000000000000    0x2637d
 .debug_loc     0x0000000000000000      0x11e spiffsexternal.obj
 .debug_loc     0x000000000000011e       0x6e ti_drivers_config.obj
 .debug_loc     0x000000000000018c     0x4142 /project/staging/core_examples/cc13xx_cc26xx_sdk/source/third_party/spiffs/lib/gcc/m4f/spiffs_cc26xx.a(spiffs_hydrogen.c.obj)
 .debug_loc     0x00000000000042ce     0xa8ef /project/staging/core_examples/cc13xx_cc26xx_sdk/source/third_party/spiffs/lib/gcc/m4f/spiffs_cc26xx.a(spiffs_nucleus.c.obj)
 .debug_loc     0x000000000000ebbd      0x45a /project/staging/core_examples/cc13xx_cc26xx_sdk/source/third_party/spiffs/lib/gcc/m4f/spiffs_cc26xx.a(SPIFFSNVS.c.obj)
 .debug_loc     0x000000000000f017     0x107c /project/staging/core_examples/cc13xx_cc26xx_sdk/source/third_party/spiffs/lib/gcc/m4f/spiffs_cc26xx.a(spiffs_cache.c.obj)
 .debug_loc     0x0000000000010093     0x16f0 /project/staging/core_examples/cc13xx_cc26xx_sdk/source/third_party/spiffs/lib/gcc/m4f/spiffs_cc26xx.a(spiffs_gc.c.obj)
 .debug_loc     0x0000000000011783      0x406 /project/staging/core_examples/cc13xx_cc26xx_sdk/source/ti/display/lib/gcc/m4f/display_cc26x2x7.a(Display.c.obj)
 .debug_loc     0x0000000000011b89      0x583 /project/staging/core_examples/cc13xx_cc26xx_sdk/source/ti/display/lib/gcc/m4f/display_cc26x2x7.a(DisplayUart2.c.obj)
 .debug_loc     0x000000000001210c      0x14f /project/staging/core_examples/cc13xx_cc26xx_sdk/source/ti/drivers/lib/gcc/m4f/drivers_cc26x2x7.a(GPIO.c.obj)
 .debug_loc     0x000000000001225b      0x96b /project/staging/core_examples/cc13xx_cc26xx_sdk/source/ti/drivers/lib/gcc/m4f/drivers_cc26x2x7.a(GPIOCC26XX.c.obj)
 .debug_loc     0x0000000000012bc6      0x408 /project/staging/core_examples/cc13xx_cc26xx_sdk/source/ti/drivers/lib/gcc/m4f/drivers_cc26x2x7.a(NVS.c.obj)
 .debug_loc     0x0000000000012fce     0x1a20 /project/staging/core_examples/cc13xx_cc26xx_sdk/source/ti/drivers/lib/gcc/m4f/drivers_cc26x2x7.a(NVSSPI25X.c.obj)
 .debug_loc     0x00000000000149ee     0x16c5 /project/staging/core_examples/cc13xx_cc26xx_sdk/source/ti/drivers/lib/gcc/m4f/drivers_cc26x2x7.a(PowerCC26X2.c.obj)
 .debug_loc     0x00000000000160b3      0x256 /project/staging/core_examples/cc13xx_cc26xx_sdk/source/ti/drivers/lib/gcc/m4f/drivers_cc26x2x7.a(PowerCC26X2_calibrateRCOSC.c.obj)
 .debug_loc     0x0000000000016309      0x278 /project/staging/core_examples/cc13xx_cc26xx_sdk/source/ti/drivers/lib/gcc/m4f/drivers_cc26x2x7.a(SPI.c.obj)
 .debug_loc     0x0000000000016581     0x10df /project/staging/core_examples/cc13xx_cc26xx_sdk/source/ti/drivers/lib/gcc/m4f/drivers_cc26x2x7.a(UART2.c.obj)
 .debug_loc     0x0000000000017660     0x2028 /project/staging/core_examples/cc13xx_cc26xx_sdk/source/ti/drivers/lib/gcc/m4f/drivers_cc26x2x7.a(UART2CC26X2.c.obj)
 .debug_loc     0x0000000000019688      0x136 /project/staging/core_examples/cc13xx_cc26xx_sdk/source/ti/drivers/lib/gcc/m4f/drivers_cc26x2x7.a(GPIOCC26X2.c.obj)
 .debug_loc     0x00000000000197be      0x2ad /project/staging/core_examples/cc13xx_cc26xx_sdk/source/ti/drivers/lib/gcc/m4f/drivers_cc26x2x7.a(PowerCC26X2_calibrateRCOSC_helpers.c.obj)
 .debug_loc     0x0000000000019a6b      0x163 /project/staging/core_examples/cc13xx_cc26xx_sdk/source/ti/drivers/lib/gcc/m4f/drivers_cc26x2x7.a(PowerCC26X2_helpers.c.obj)
 .debug_loc     0x0000000000019bce     0x2035 /project/staging/core_examples/cc13xx_cc26xx_sdk/source/ti/drivers/lib/gcc/m4f/drivers_cc26x2x7.a(SPICC26X2DMA.c.obj)
 .debug_loc     0x000000000001bc03      0x428 /project/staging/core_examples/cc13xx_cc26xx_sdk/source/ti/drivers/lib/gcc/m4f/drivers_cc26x2x7.a(List.c.obj)
 .debug_loc     0x000000000001c02b      0x6e0 /project/staging/core_examples/cc13xx_cc26xx_sdk/source/ti/drivers/lib/gcc/m4f/drivers_cc26x2x7.a(RingBuf.c.obj)
 .debug_loc     0x000000000001c70b      0x1f5 /project/staging/core_examples/cc13xx_cc26xx_sdk/source/ti/drivers/lib/gcc/m4f/drivers_cc26x2x7.a(UDMACC26XX.c.obj)
 .debug_loc     0x000000000001c900       0x32 /project/staging/core_examples/cc13xx_cc26xx_sdk/kernel/nortos/lib/gcc/m4f/nortos_cc26x2x7.a(NoRTOS.c.obj)
 .debug_loc     0x000000000001c932       0x7c /project/staging/core_examples/cc13xx_cc26xx_sdk/kernel/nortos/lib/gcc/m4f/nortos_cc26x2x7.a(MutexP_nortos.c.obj)
 .debug_loc     0x000000000001c9ae      0xbae /project/staging/core_examples/cc13xx_cc26xx_sdk/kernel/nortos/lib/gcc/m4f/nortos_cc26x2x7.a(SemaphoreP_nortos.c.obj)
 .debug_loc     0x000000000001d55c      0xf6f /project/staging/core_examples/cc13xx_cc26xx_sdk/kernel/nortos/lib/gcc/m4f/nortos_cc26x2x7.a(SwiP_nortos.c.obj)
 .debug_loc     0x000000000001e4cb     0x24a4 /project/staging/core_examples/cc13xx_cc26xx_sdk/kernel/nortos/lib/gcc/m4f/nortos_cc26x2x7.a(SystemP_nortos.c.obj)
 .debug_loc     0x000000000002096f     0x13a2 /project/staging/core_examples/cc13xx_cc26xx_sdk/kernel/nortos/lib/gcc/m4f/nortos_cc26x2x7.a(ClockPTimer_nortos.c.obj)
 .debug_loc     0x0000000000021d11      0x37f /project/staging/core_examples/cc13xx_cc26xx_sdk/kernel/nortos/lib/gcc/m4f/nortos_cc26x2x7.a(QueueP_nortos.c.obj)
 .debug_loc     0x0000000000022090      0x808 /project/staging/core_examples/cc13xx_cc26xx_sdk/kernel/nortos/lib/gcc/m4f/nortos_cc26x2x7.a(HwiPCC26XX_nortos.c.obj)
 .debug_loc     0x0000000000022898      0x154 /project/staging/core_examples/cc13xx_cc26xx_sdk/kernel/nortos/lib/gcc/m4f/nortos_cc26x2x7.a(PowerCC26X2_nortos.c.obj)
 .debug_loc     0x00000000000229ec      0xd9f /project/staging/core_examples/cc13xx_cc26xx_sdk/kernel/nortos/lib/gcc/m4f/nortos_cc26x2x7.a(TimerPCC26XX_nortos.c.obj)
 .debug_loc     0x000000000002378b       0x65 /project/staging/core_examples/cc13xx_cc26xx_sdk/kernel/nortos/lib/gcc/m4f/nortos_cc26x2x7.a(startup_cc13x2_cc26x2_gcc.c.obj)
 .debug_loc     0x00000000000237f0       0x54 /project/staging/core_examples/cc13xx_cc26xx_sdk/source/ti/devices/cc13x2x7_cc26x2x7/driverlib/bin/gcc/driverlib.lib(cpu.c.obj)
 .debug_loc     0x0000000000023844      0x347 /project/staging/core_examples/cc13xx_cc26xx_sdk/source/ti/devices/cc13x2x7_cc26x2x7/driverlib/bin/gcc/driverlib.lib(interrupt.c.obj)
 .debug_loc     0x0000000000023b8b     0x1964 /project/staging/core_examples/cc13xx_cc26xx_sdk/source/ti/devices/cc13x2x7_cc26x2x7/driverlib/bin/gcc/driverlib.lib(osc.c.obj)
 .debug_loc     0x00000000000254ef      0x7e0 /project/staging/core_examples/cc13xx_cc26xx_sdk/source/ti/devices/cc13x2x7_cc26x2x7/driverlib/bin/gcc/driverlib.lib(prcm.c.obj)
 .debug_loc     0x0000000000025ccf      0x109 /project/staging/core_examples/cc13xx_cc26xx_sdk/source/ti/devices/cc13x2x7_cc26x2x7/driverlib/bin/gcc/driverlib.lib(setup.c.obj)
 .debug_loc     0x0000000000025dd8      0x250 /project/staging/core_examples/cc13xx_cc26xx_sdk/source/ti/devices/cc13x2x7_cc26x2x7/driverlib/bin/gcc/driverlib.lib(sys_ctrl.c.obj)
 .debug_loc     0x0000000000026028       0x53 /project/staging/core_examples/cc13xx_cc26xx_sdk/source/ti/devices/cc13x2x7_cc26x2x7/driverlib/bin/gcc/driverlib.lib(aux_sysif.c.obj)
 .debug_loc     0x000000000002607b      0x302 /project/staging/core_examples/cc13xx_cc26xx_sdk/source/ti/devices/cc13x2x7_cc26x2x7/driverlib/bin/gcc/driverlib.lib(chipinfo.c.obj)

.debug_aranges  0x0000000000000000     0x14a8
 .debug_aranges
                0x0000000000000000       0x20 spiffsexternal.obj
 .debug_aranges
                0x0000000000000020       0x20 main_nortos.obj
 .debug_aranges
                0x0000000000000040       0x18 ti_devices_config.obj
 .debug_aranges
                0x0000000000000058       0x40 ti_drivers_config.obj
 .debug_aranges
                0x0000000000000098      0x168 /project/staging/core_examples/cc13xx_cc26xx_sdk/source/third_party/spiffs/lib/gcc/m4f/spiffs_cc26xx.a(spiffs_hydrogen.c.obj)
 .debug_aranges
                0x0000000000000200      0x148 /project/staging/core_examples/cc13xx_cc26xx_sdk/source/third_party/spiffs/lib/gcc/m4f/spiffs_cc26xx.a(spiffs_nucleus.c.obj)
 .debug_aranges
                0x0000000000000348       0x50 /project/staging/core_examples/cc13xx_cc26xx_sdk/source/third_party/spiffs/lib/gcc/m4f/spiffs_cc26xx.a(SPIFFSNVS.c.obj)
 .debug_aranges
                0x0000000000000398       0x58 /project/staging/core_examples/cc13xx_cc26xx_sdk/source/third_party/spiffs/lib/gcc/m4f/spiffs_cc26xx.a(spiffs_cache.c.obj)
 .debug_aranges
                0x00000000000003f0       0x40 /project/staging/core_examples/cc13xx_cc26xx_sdk/source/third_party/spiffs/lib/gcc/m4f/spiffs_cc26xx.a(spiffs_gc.c.obj)
 .debug_aranges
                0x0000000000000430       0x68 /project/staging/core_examples/cc13xx_cc26xx_sdk/source/ti/display/lib/gcc/m4f/display_cc26x2x7.a(Display.c.obj)
 .debug_aranges
                0x0000000000000498       0x78 /project/staging/core_examples/cc13xx_cc26xx_sdk/source/ti/display/lib/gcc/m4f/display_cc26x2x7.a(DisplayUart2.c.obj)
 .debug_aranges
                0x0000000000000510       0x40 /project/staging/core_examples/cc13xx_cc26xx_sdk/source/ti/drivers/lib/gcc/m4f/drivers_cc26x2x7.a(GPIO.c.obj)
 .debug_aranges
                0x0000000000000550       0x70 /project/staging/core_examples/cc13xx_cc26xx_sdk/source/ti/drivers/lib/gcc/m4f/drivers_cc26x2x7.a(GPIOCC26XX.c.obj)
 .debug_aranges
                0x00000000000005c0       0x70 /project/staging/core_examples/cc13xx_cc26xx_sdk/source/ti/drivers/lib/gcc/m4f/drivers_cc26x2x7.a(NVS.c.obj)
 .debug_aranges
                0x0000000000000630       0xa0 /project/staging/core_examples/cc13xx_cc26xx_sdk/source/ti/drivers/lib/gcc/m4f/drivers_cc26x2x7.a(NVSSPI25X.c.obj)
 .debug_aranges
                0x00000000000006d0      0x140 /project/staging/core_examples/cc13xx_cc26xx_sdk/source/ti/drivers/lib/gcc/m4f/drivers_cc26x2x7.a(PowerCC26X2.c.obj)
 .debug_aranges
                0x0000000000000810       0x38 /project/staging/core_examples/cc13xx_cc26xx_sdk/source/ti/drivers/lib/gcc/m4f/drivers_cc26x2x7.a(PowerCC26X2_calibrateRCOSC.c.obj)
 .debug_aranges
                0x0000000000000848       0x50 /project/staging/core_examples/cc13xx_cc26xx_sdk/source/ti/drivers/lib/gcc/m4f/drivers_cc26x2x7.a(SPI.c.obj)
 .debug_aranges
                0x0000000000000898       0x80 /project/staging/core_examples/cc13xx_cc26xx_sdk/source/ti/drivers/lib/gcc/m4f/drivers_cc26x2x7.a(UART2.c.obj)
 .debug_aranges
                0x0000000000000918       0xc0 /project/staging/core_examples/cc13xx_cc26xx_sdk/source/ti/drivers/lib/gcc/m4f/drivers_cc26x2x7.a(UART2CC26X2.c.obj)
 .debug_aranges
                0x00000000000009d8       0x28 /project/staging/core_examples/cc13xx_cc26xx_sdk/source/ti/drivers/lib/gcc/m4f/drivers_cc26x2x7.a(GPIOCC26X2.c.obj)
 .debug_aranges
                0x0000000000000a00       0x68 /project/staging/core_examples/cc13xx_cc26xx_sdk/source/ti/drivers/lib/gcc/m4f/drivers_cc26x2x7.a(PowerCC26X2_calibrateRCOSC_helpers.c.obj)
 .debug_aranges
                0x0000000000000a68       0xd0 /project/staging/core_examples/cc13xx_cc26xx_sdk/source/ti/drivers/lib/gcc/m4f/drivers_cc26x2x7.a(PowerCC26X2_helpers.c.obj)
 .debug_aranges
                0x0000000000000b38       0x88 /project/staging/core_examples/cc13xx_cc26xx_sdk/source/ti/drivers/lib/gcc/m4f/drivers_cc26x2x7.a(SPICC26X2DMA.c.obj)
 .debug_aranges
                0x0000000000000bc0       0x48 /project/staging/core_examples/cc13xx_cc26xx_sdk/source/ti/drivers/lib/gcc/m4f/drivers_cc26x2x7.a(List.c.obj)
 .debug_aranges
                0x0000000000000c08       0x88 /project/staging/core_examples/cc13xx_cc26xx_sdk/source/ti/drivers/lib/gcc/m4f/drivers_cc26x2x7.a(RingBuf.c.obj)
 .debug_aranges
                0x0000000000000c90       0x30 /project/staging/core_examples/cc13xx_cc26xx_sdk/source/ti/drivers/lib/gcc/m4f/drivers_cc26x2x7.a(UDMACC26XX.c.obj)
 .debug_aranges
                0x0000000000000cc0       0x30 /project/staging/core_examples/cc13xx_cc26xx_sdk/kernel/nortos/lib/gcc/m4f/nortos_cc26x2x7.a(NoRTOS.c.obj)
 .debug_aranges
                0x0000000000000cf0       0x48 /project/staging/core_examples/cc13xx_cc26xx_sdk/kernel/nortos/lib/gcc/m4f/nortos_cc26x2x7.a(MutexP_nortos.c.obj)
 .debug_aranges
                0x0000000000000d38       0x78 /project/staging/core_examples/cc13xx_cc26xx_sdk/kernel/nortos/lib/gcc/m4f/nortos_cc26x2x7.a(SemaphoreP_nortos.c.obj)
 .debug_aranges
                0x0000000000000db0       0xa8 /project/staging/core_examples/cc13xx_cc26xx_sdk/kernel/nortos/lib/gcc/m4f/nortos_cc26x2x7.a(SwiP_nortos.c.obj)
 .debug_aranges
                0x0000000000000e58       0x38 /project/staging/core_examples/cc13xx_cc26xx_sdk/kernel/nortos/lib/gcc/m4f/nortos_cc26x2x7.a(SystemP_nortos.c.obj)
 .debug_aranges
                0x0000000000000e90       0xe8 /project/staging/core_examples/cc13xx_cc26xx_sdk/kernel/nortos/lib/gcc/m4f/nortos_cc26x2x7.a(ClockPTimer_nortos.c.obj)
 .debug_aranges
                0x0000000000000f78       0x80 /project/staging/core_examples/cc13xx_cc26xx_sdk/kernel/nortos/lib/gcc/m4f/nortos_cc26x2x7.a(QueueP_nortos.c.obj)
 .debug_aranges
                0x0000000000000ff8       0xb8 /project/staging/core_examples/cc13xx_cc26xx_sdk/kernel/nortos/lib/gcc/m4f/nortos_cc26x2x7.a(HwiPCC26XX_nortos.c.obj)
 .debug_aranges
                0x00000000000010b0       0x30 /project/staging/core_examples/cc13xx_cc26xx_sdk/kernel/nortos/lib/gcc/m4f/nortos_cc26x2x7.a(PowerCC26X2_nortos.c.obj)
 .debug_aranges
                0x00000000000010e0       0x80 /project/staging/core_examples/cc13xx_cc26xx_sdk/kernel/nortos/lib/gcc/m4f/nortos_cc26x2x7.a(TimerPCC26XX_nortos.c.obj)
 .debug_aranges
                0x0000000000001160       0x50 /project/staging/core_examples/cc13xx_cc26xx_sdk/kernel/nortos/lib/gcc/m4f/nortos_cc26x2x7.a(startup_cc13x2_cc26x2_gcc.c.obj)
 .debug_aranges
                0x00000000000011b0       0x40 /project/staging/core_examples/cc13xx_cc26xx_sdk/source/ti/devices/cc13x2x7_cc26x2x7/driverlib/bin/gcc/driverlib.lib(cpu.c.obj)
 .debug_aranges
                0x00000000000011f0       0x78 /project/staging/core_examples/cc13xx_cc26xx_sdk/source/ti/devices/cc13x2x7_cc26x2x7/driverlib/bin/gcc/driverlib.lib(interrupt.c.obj)
 .debug_aranges
                0x0000000000001268       0xb0 /project/staging/core_examples/cc13xx_cc26xx_sdk/source/ti/devices/cc13x2x7_cc26x2x7/driverlib/bin/gcc/driverlib.lib(osc.c.obj)
 .debug_aranges
                0x0000000000001318       0xa8 /project/staging/core_examples/cc13xx_cc26xx_sdk/source/ti/devices/cc13x2x7_cc26x2x7/driverlib/bin/gcc/driverlib.lib(prcm.c.obj)
 .debug_aranges
                0x00000000000013c0       0x28 /project/staging/core_examples/cc13xx_cc26xx_sdk/source/ti/devices/cc13x2x7_cc26x2x7/driverlib/bin/gcc/driverlib.lib(setup.c.obj)
 .debug_aranges
                0x00000000000013e8       0x58 /project/staging/core_examples/cc13xx_cc26xx_sdk/source/ti/devices/cc13x2x7_cc26x2x7/driverlib/bin/gcc/driverlib.lib(sys_ctrl.c.obj)
 .debug_aranges
                0x0000000000001440       0x20 /project/staging/core_examples/cc13xx_cc26xx_sdk/source/ti/devices/cc13x2x7_cc26x2x7/driverlib/bin/gcc/driverlib.lib(aux_sysif.c.obj)
 .debug_aranges
                0x0000000000001460       0x48 /project/staging/core_examples/cc13xx_cc26xx_sdk/source/ti/devices/cc13x2x7_cc26x2x7/driverlib/bin/gcc/driverlib.lib(chipinfo.c.obj)

.debug_ranges   0x0000000000000000     0x5220
 .debug_ranges  0x0000000000000000       0x10 spiffsexternal.obj
 .debug_ranges  0x0000000000000010       0x10 main_nortos.obj
 .debug_ranges  0x0000000000000020       0x48 ti_drivers_config.obj
 .debug_ranges  0x0000000000000068      0x420 /project/staging/core_examples/cc13xx_cc26xx_sdk/source/third_party/spiffs/lib/gcc/m4f/spiffs_cc26xx.a(spiffs_hydrogen.c.obj)
 .debug_ranges  0x0000000000000488      0xe70 /project/staging/core_examples/cc13xx_cc26xx_sdk/source/third_party/spiffs/lib/gcc/m4f/spiffs_cc26xx.a(spiffs_nucleus.c.obj)
 .debug_ranges  0x00000000000012f8       0x40 /project/staging/core_examples/cc13xx_cc26xx_sdk/source/third_party/spiffs/lib/gcc/m4f/spiffs_cc26xx.a(SPIFFSNVS.c.obj)
 .debug_ranges  0x0000000000001338      0x258 /project/staging/core_examples/cc13xx_cc26xx_sdk/source/third_party/spiffs/lib/gcc/m4f/spiffs_cc26xx.a(spiffs_cache.c.obj)
 .debug_ranges  0x0000000000001590      0x3d8 /project/staging/core_examples/cc13xx_cc26xx_sdk/source/third_party/spiffs/lib/gcc/m4f/spiffs_cc26xx.a(spiffs_gc.c.obj)
 .debug_ranges  0x0000000000001968       0x58 /project/staging/core_examples/cc13xx_cc26xx_sdk/source/ti/display/lib/gcc/m4f/display_cc26x2x7.a(Display.c.obj)
 .debug_ranges  0x00000000000019c0       0x68 /project/staging/core_examples/cc13xx_cc26xx_sdk/source/ti/display/lib/gcc/m4f/display_cc26x2x7.a(DisplayUart2.c.obj)
 .debug_ranges  0x0000000000001a28       0x48 /project/staging/core_examples/cc13xx_cc26xx_sdk/source/ti/drivers/lib/gcc/m4f/drivers_cc26x2x7.a(GPIO.c.obj)
 .debug_ranges  0x0000000000001a70      0x110 /project/staging/core_examples/cc13xx_cc26xx_sdk/source/ti/drivers/lib/gcc/m4f/drivers_cc26x2x7.a(GPIOCC26XX.c.obj)
 .debug_ranges  0x0000000000001b80       0x78 /project/staging/core_examples/cc13xx_cc26xx_sdk/source/ti/drivers/lib/gcc/m4f/drivers_cc26x2x7.a(NVS.c.obj)
 .debug_ranges  0x0000000000001bf8      0x398 /project/staging/core_examples/cc13xx_cc26xx_sdk/source/ti/drivers/lib/gcc/m4f/drivers_cc26x2x7.a(NVSSPI25X.c.obj)
 .debug_ranges  0x0000000000001f90      0x500 /project/staging/core_examples/cc13xx_cc26xx_sdk/source/ti/drivers/lib/gcc/m4f/drivers_cc26x2x7.a(PowerCC26X2.c.obj)
 .debug_ranges  0x0000000000002490      0x130 /project/staging/core_examples/cc13xx_cc26xx_sdk/source/ti/drivers/lib/gcc/m4f/drivers_cc26x2x7.a(PowerCC26X2_calibrateRCOSC.c.obj)
 .debug_ranges  0x00000000000025c0       0x40 /project/staging/core_examples/cc13xx_cc26xx_sdk/source/ti/drivers/lib/gcc/m4f/drivers_cc26x2x7.a(SPI.c.obj)
 .debug_ranges  0x0000000000002600       0x70 /project/staging/core_examples/cc13xx_cc26xx_sdk/source/ti/drivers/lib/gcc/m4f/drivers_cc26x2x7.a(UART2.c.obj)
 .debug_ranges  0x0000000000002670      0x5d8 /project/staging/core_examples/cc13xx_cc26xx_sdk/source/ti/drivers/lib/gcc/m4f/drivers_cc26x2x7.a(UART2CC26X2.c.obj)
 .debug_ranges  0x0000000000002c48       0x50 /project/staging/core_examples/cc13xx_cc26xx_sdk/source/ti/drivers/lib/gcc/m4f/drivers_cc26x2x7.a(GPIOCC26X2.c.obj)
 .debug_ranges  0x0000000000002c98       0x90 /project/staging/core_examples/cc13xx_cc26xx_sdk/source/ti/drivers/lib/gcc/m4f/drivers_cc26x2x7.a(PowerCC26X2_calibrateRCOSC_helpers.c.obj)
 .debug_ranges  0x0000000000002d28      0x150 /project/staging/core_examples/cc13xx_cc26xx_sdk/source/ti/drivers/lib/gcc/m4f/drivers_cc26x2x7.a(PowerCC26X2_helpers.c.obj)
 .debug_ranges  0x0000000000002e78      0x398 /project/staging/core_examples/cc13xx_cc26xx_sdk/source/ti/drivers/lib/gcc/m4f/drivers_cc26x2x7.a(SPICC26X2DMA.c.obj)
 .debug_ranges  0x0000000000003210       0x38 /project/staging/core_examples/cc13xx_cc26xx_sdk/source/ti/drivers/lib/gcc/m4f/drivers_cc26x2x7.a(List.c.obj)
 .debug_ranges  0x0000000000003248       0xb0 /project/staging/core_examples/cc13xx_cc26xx_sdk/source/ti/drivers/lib/gcc/m4f/drivers_cc26x2x7.a(RingBuf.c.obj)
 .debug_ranges  0x00000000000032f8       0xb0 /project/staging/core_examples/cc13xx_cc26xx_sdk/source/ti/drivers/lib/gcc/m4f/drivers_cc26x2x7.a(UDMACC26XX.c.obj)
 .debug_ranges  0x00000000000033a8       0x20 /project/staging/core_examples/cc13xx_cc26xx_sdk/kernel/nortos/lib/gcc/m4f/nortos_cc26x2x7.a(NoRTOS.c.obj)
 .debug_ranges  0x00000000000033c8       0x38 /project/staging/core_examples/cc13xx_cc26xx_sdk/kernel/nortos/lib/gcc/m4f/nortos_cc26x2x7.a(MutexP_nortos.c.obj)
 .debug_ranges  0x0000000000003400      0x280 /project/staging/core_examples/cc13xx_cc26xx_sdk/kernel/nortos/lib/gcc/m4f/nortos_cc26x2x7.a(SemaphoreP_nortos.c.obj)
 .debug_ranges  0x0000000000003680      0x178 /project/staging/core_examples/cc13xx_cc26xx_sdk/kernel/nortos/lib/gcc/m4f/nortos_cc26x2x7.a(SwiP_nortos.c.obj)
 .debug_ranges  0x00000000000037f8      0x160 /project/staging/core_examples/cc13xx_cc26xx_sdk/kernel/nortos/lib/gcc/m4f/nortos_cc26x2x7.a(SystemP_nortos.c.obj)
 .debug_ranges  0x0000000000003958      0x1f8 /project/staging/core_examples/cc13xx_cc26xx_sdk/kernel/nortos/lib/gcc/m4f/nortos_cc26x2x7.a(ClockPTimer_nortos.c.obj)
 .debug_ranges  0x0000000000003b50       0x88 /project/staging/core_examples/cc13xx_cc26xx_sdk/kernel/nortos/lib/gcc/m4f/nortos_cc26x2x7.a(QueueP_nortos.c.obj)
 .debug_ranges  0x0000000000003bd8      0x150 /project/staging/core_examples/cc13xx_cc26xx_sdk/kernel/nortos/lib/gcc/m4f/nortos_cc26x2x7.a(HwiPCC26XX_nortos.c.obj)
 .debug_ranges  0x0000000000003d28       0x50 /project/staging/core_examples/cc13xx_cc26xx_sdk/kernel/nortos/lib/gcc/m4f/nortos_cc26x2x7.a(PowerCC26X2_nortos.c.obj)
 .debug_ranges  0x0000000000003d78      0x370 /project/staging/core_examples/cc13xx_cc26xx_sdk/kernel/nortos/lib/gcc/m4f/nortos_cc26x2x7.a(TimerPCC26XX_nortos.c.obj)
 .debug_ranges  0x00000000000040e8       0x40 /project/staging/core_examples/cc13xx_cc26xx_sdk/kernel/nortos/lib/gcc/m4f/nortos_cc26x2x7.a(startup_cc13x2_cc26x2_gcc.c.obj)
 .debug_ranges  0x0000000000004128       0x30 /project/staging/core_examples/cc13xx_cc26xx_sdk/source/ti/devices/cc13x2x7_cc26x2x7/driverlib/bin/gcc/driverlib.lib(cpu.c.obj)
 .debug_ranges  0x0000000000004158       0x68 /project/staging/core_examples/cc13xx_cc26xx_sdk/source/ti/devices/cc13x2x7_cc26x2x7/driverlib/bin/gcc/driverlib.lib(interrupt.c.obj)
 .debug_ranges  0x00000000000041c0      0xbb8 /project/staging/core_examples/cc13xx_cc26xx_sdk/source/ti/devices/cc13x2x7_cc26x2x7/driverlib/bin/gcc/driverlib.lib(osc.c.obj)
 .debug_ranges  0x0000000000004d78       0xf0 /project/staging/core_examples/cc13xx_cc26xx_sdk/source/ti/devices/cc13x2x7_cc26x2x7/driverlib/bin/gcc/driverlib.lib(prcm.c.obj)
 .debug_ranges  0x0000000000004e68       0xc8 /project/staging/core_examples/cc13xx_cc26xx_sdk/source/ti/devices/cc13x2x7_cc26x2x7/driverlib/bin/gcc/driverlib.lib(setup.c.obj)
 .debug_ranges  0x0000000000004f30      0x1e8 /project/staging/core_examples/cc13xx_cc26xx_sdk/source/ti/devices/cc13x2x7_cc26x2x7/driverlib/bin/gcc/driverlib.lib(sys_ctrl.c.obj)
 .debug_ranges  0x0000000000005118       0x10 /project/staging/core_examples/cc13xx_cc26xx_sdk/source/ti/devices/cc13x2x7_cc26x2x7/driverlib/bin/gcc/driverlib.lib(aux_sysif.c.obj)
 .debug_ranges  0x0000000000005128       0xf8 /project/staging/core_examples/cc13xx_cc26xx_sdk/source/ti/devices/cc13x2x7_cc26x2x7/driverlib/bin/gcc/driverlib.lib(chipinfo.c.obj)

.debug_line     0x0000000000000000    0x25607
 .debug_line    0x0000000000000000      0x739 spiffsexternal.obj
 .debug_line    0x0000000000000739       0x77 main_nortos.obj
 .debug_line    0x00000000000007b0      0x268 ti_devices_config.obj
 .debug_line    0x0000000000000a18      0x881 ti_drivers_config.obj
 .debug_line    0x0000000000001299     0x3279 /project/staging/core_examples/cc13xx_cc26xx_sdk/source/third_party/spiffs/lib/gcc/m4f/spiffs_cc26xx.a(spiffs_hydrogen.c.obj)
 .debug_line    0x0000000000004512     0x5586 /project/staging/core_examples/cc13xx_cc26xx_sdk/source/third_party/spiffs/lib/gcc/m4f/spiffs_cc26xx.a(spiffs_nucleus.c.obj)
 .debug_line    0x0000000000009a98      0x785 /project/staging/core_examples/cc13xx_cc26xx_sdk/source/third_party/spiffs/lib/gcc/m4f/spiffs_cc26xx.a(SPIFFSNVS.c.obj)
 .debug_line    0x000000000000a21d      0xb9e /project/staging/core_examples/cc13xx_cc26xx_sdk/source/third_party/spiffs/lib/gcc/m4f/spiffs_cc26xx.a(spiffs_cache.c.obj)
 .debug_line    0x000000000000adbb     0x13eb /project/staging/core_examples/cc13xx_cc26xx_sdk/source/third_party/spiffs/lib/gcc/m4f/spiffs_cc26xx.a(spiffs_gc.c.obj)
 .debug_line    0x000000000000c1a6      0x523 /project/staging/core_examples/cc13xx_cc26xx_sdk/source/ti/display/lib/gcc/m4f/display_cc26x2x7.a(Display.c.obj)
 .debug_line    0x000000000000c6c9      0x9ba /project/staging/core_examples/cc13xx_cc26xx_sdk/source/ti/display/lib/gcc/m4f/display_cc26x2x7.a(DisplayUart2.c.obj)
 .debug_line    0x000000000000d083      0x4b2 /project/staging/core_examples/cc13xx_cc26xx_sdk/source/ti/drivers/lib/gcc/m4f/drivers_cc26x2x7.a(GPIO.c.obj)
 .debug_line    0x000000000000d535      0xab6 /project/staging/core_examples/cc13xx_cc26xx_sdk/source/ti/drivers/lib/gcc/m4f/drivers_cc26x2x7.a(GPIOCC26XX.c.obj)
 .debug_line    0x000000000000dfeb      0x665 /project/staging/core_examples/cc13xx_cc26xx_sdk/source/ti/drivers/lib/gcc/m4f/drivers_cc26x2x7.a(NVS.c.obj)
 .debug_line    0x000000000000e650     0x1422 /project/staging/core_examples/cc13xx_cc26xx_sdk/source/ti/drivers/lib/gcc/m4f/drivers_cc26x2x7.a(NVSSPI25X.c.obj)
 .debug_line    0x000000000000fa72     0x1f34 /project/staging/core_examples/cc13xx_cc26xx_sdk/source/ti/drivers/lib/gcc/m4f/drivers_cc26x2x7.a(PowerCC26X2.c.obj)
 .debug_line    0x00000000000119a6      0xd34 /project/staging/core_examples/cc13xx_cc26xx_sdk/source/ti/drivers/lib/gcc/m4f/drivers_cc26x2x7.a(PowerCC26X2_calibrateRCOSC.c.obj)
 .debug_line    0x00000000000126da      0x5e3 /project/staging/core_examples/cc13xx_cc26xx_sdk/source/ti/drivers/lib/gcc/m4f/drivers_cc26x2x7.a(SPI.c.obj)
 .debug_line    0x0000000000012cbd      0xfd6 /project/staging/core_examples/cc13xx_cc26xx_sdk/source/ti/drivers/lib/gcc/m4f/drivers_cc26x2x7.a(UART2.c.obj)
 .debug_line    0x0000000000013c93     0x1dfa /project/staging/core_examples/cc13xx_cc26xx_sdk/source/ti/drivers/lib/gcc/m4f/drivers_cc26x2x7.a(UART2CC26X2.c.obj)
 .debug_line    0x0000000000015a8d      0x836 /project/staging/core_examples/cc13xx_cc26xx_sdk/source/ti/drivers/lib/gcc/m4f/drivers_cc26x2x7.a(GPIOCC26X2.c.obj)
 .debug_line    0x00000000000162c3      0x5ae /project/staging/core_examples/cc13xx_cc26xx_sdk/source/ti/drivers/lib/gcc/m4f/drivers_cc26x2x7.a(PowerCC26X2_calibrateRCOSC_helpers.c.obj)
 .debug_line    0x0000000000016871      0x84f /project/staging/core_examples/cc13xx_cc26xx_sdk/source/ti/drivers/lib/gcc/m4f/drivers_cc26x2x7.a(PowerCC26X2_helpers.c.obj)
 .debug_line    0x00000000000170c0     0x1f03 /project/staging/core_examples/cc13xx_cc26xx_sdk/source/ti/drivers/lib/gcc/m4f/drivers_cc26x2x7.a(SPICC26X2DMA.c.obj)
 .debug_line    0x0000000000018fc3      0x614 /project/staging/core_examples/cc13xx_cc26xx_sdk/source/ti/drivers/lib/gcc/m4f/drivers_cc26x2x7.a(List.c.obj)
 .debug_line    0x00000000000195d7      0x842 /project/staging/core_examples/cc13xx_cc26xx_sdk/source/ti/drivers/lib/gcc/m4f/drivers_cc26x2x7.a(RingBuf.c.obj)
 .debug_line    0x0000000000019e19      0x755 /project/staging/core_examples/cc13xx_cc26xx_sdk/source/ti/drivers/lib/gcc/m4f/drivers_cc26x2x7.a(UDMACC26XX.c.obj)
 .debug_line    0x000000000001a56e      0x389 /project/staging/core_examples/cc13xx_cc26xx_sdk/kernel/nortos/lib/gcc/m4f/nortos_cc26x2x7.a(NoRTOS.c.obj)
 .debug_line    0x000000000001a8f7      0x529 /project/staging/core_examples/cc13xx_cc26xx_sdk/kernel/nortos/lib/gcc/m4f/nortos_cc26x2x7.a(MutexP_nortos.c.obj)
 .debug_line    0x000000000001ae20      0xc26 /project/staging/core_examples/cc13xx_cc26xx_sdk/kernel/nortos/lib/gcc/m4f/nortos_cc26x2x7.a(SemaphoreP_nortos.c.obj)
 .debug_line    0x000000000001ba46      0xdb0 /project/staging/core_examples/cc13xx_cc26xx_sdk/kernel/nortos/lib/gcc/m4f/nortos_cc26x2x7.a(SwiP_nortos.c.obj)
 .debug_line    0x000000000001c7f6      0xbd3 /project/staging/core_examples/cc13xx_cc26xx_sdk/kernel/nortos/lib/gcc/m4f/nortos_cc26x2x7.a(SystemP_nortos.c.obj)
 .debug_line    0x000000000001d3c9      0xfb0 /project/staging/core_examples/cc13xx_cc26xx_sdk/kernel/nortos/lib/gcc/m4f/nortos_cc26x2x7.a(ClockPTimer_nortos.c.obj)
 .debug_line    0x000000000001e379      0x59d /project/staging/core_examples/cc13xx_cc26xx_sdk/kernel/nortos/lib/gcc/m4f/nortos_cc26x2x7.a(QueueP_nortos.c.obj)
 .debug_line    0x000000000001e916      0x9ed /project/staging/core_examples/cc13xx_cc26xx_sdk/kernel/nortos/lib/gcc/m4f/nortos_cc26x2x7.a(HwiPCC26XX_nortos.c.obj)
 .debug_line    0x000000000001f303      0x904 /project/staging/core_examples/cc13xx_cc26xx_sdk/kernel/nortos/lib/gcc/m4f/nortos_cc26x2x7.a(PowerCC26X2_nortos.c.obj)
 .debug_line    0x000000000001fc07      0xe97 /project/staging/core_examples/cc13xx_cc26xx_sdk/kernel/nortos/lib/gcc/m4f/nortos_cc26x2x7.a(TimerPCC26XX_nortos.c.obj)
 .debug_line    0x0000000000020a9e      0x5ac /project/staging/core_examples/cc13xx_cc26xx_sdk/kernel/nortos/lib/gcc/m4f/nortos_cc26x2x7.a(startup_cc13x2_cc26x2_gcc.c.obj)
 .debug_line    0x000000000002104a      0x2d3 /project/staging/core_examples/cc13xx_cc26xx_sdk/source/ti/devices/cc13x2x7_cc26x2x7/driverlib/bin/gcc/driverlib.lib(cpu.c.obj)
 .debug_line    0x000000000002131d      0x6b6 /project/staging/core_examples/cc13xx_cc26xx_sdk/source/ti/devices/cc13x2x7_cc26x2x7/driverlib/bin/gcc/driverlib.lib(interrupt.c.obj)
 .debug_line    0x00000000000219d3     0x1e28 /project/staging/core_examples/cc13xx_cc26xx_sdk/source/ti/devices/cc13x2x7_cc26x2x7/driverlib/bin/gcc/driverlib.lib(osc.c.obj)
 .debug_line    0x00000000000237fb      0x8ea /project/staging/core_examples/cc13xx_cc26xx_sdk/source/ti/devices/cc13x2x7_cc26x2x7/driverlib/bin/gcc/driverlib.lib(prcm.c.obj)
 .debug_line    0x00000000000240e5      0x4fb /project/staging/core_examples/cc13xx_cc26xx_sdk/source/ti/devices/cc13x2x7_cc26x2x7/driverlib/bin/gcc/driverlib.lib(setup.c.obj)
 .debug_line    0x00000000000245e0      0x833 /project/staging/core_examples/cc13xx_cc26xx_sdk/source/ti/devices/cc13x2x7_cc26x2x7/driverlib/bin/gcc/driverlib.lib(sys_ctrl.c.obj)
 .debug_line    0x0000000000024e13      0x2e9 /project/staging/core_examples/cc13xx_cc26xx_sdk/source/ti/devices/cc13x2x7_cc26x2x7/driverlib/bin/gcc/driverlib.lib(aux_sysif.c.obj)
 .debug_line    0x00000000000250fc      0x50b /project/staging/core_examples/cc13xx_cc26xx_sdk/source/ti/devices/cc13x2x7_cc26x2x7/driverlib/bin/gcc/driverlib.lib(chipinfo.c.obj)

.debug_str      0x0000000000000000     0xa972
 .debug_str     0x0000000000000000      0xd5e spiffsexternal.obj
                                        0xf20 (size before relaxing)
 .debug_str     0x0000000000000d5e       0x16 main_nortos.obj
                                        0x1c5 (size before relaxing)
 .debug_str     0x0000000000000d74      0x209 ti_devices_config.obj
                                        0x3cc (size before relaxing)
 .debug_str     0x0000000000000f7d     0x12e7 ti_drivers_config.obj
                                       0x19a6 (size before relaxing)
 .debug_str     0x0000000000002264      0xb94 /project/staging/core_examples/cc13xx_cc26xx_sdk/source/third_party/spiffs/lib/gcc/m4f/spiffs_cc26xx.a(spiffs_hydrogen.c.obj)
                                       0x148c (size before relaxing)
 .debug_str     0x0000000000002df8      0x6d0 /project/staging/core_examples/cc13xx_cc26xx_sdk/source/third_party/spiffs/lib/gcc/m4f/spiffs_cc26xx.a(spiffs_nucleus.c.obj)
                                       0x1539 (size before relaxing)
 .debug_str     0x00000000000034c8      0x1b3 /project/staging/core_examples/cc13xx_cc26xx_sdk/source/third_party/spiffs/lib/gcc/m4f/spiffs_cc26xx.a(SPIFFSNVS.c.obj)
                                        0xe03 (size before relaxing)
 .debug_str     0x000000000000367b      0x184 /project/staging/core_examples/cc13xx_cc26xx_sdk/source/third_party/spiffs/lib/gcc/m4f/spiffs_cc26xx.a(spiffs_cache.c.obj)
                                        0xd78 (size before relaxing)
 .debug_str     0x00000000000037ff      0x297 /project/staging/core_examples/cc13xx_cc26xx_sdk/source/third_party/spiffs/lib/gcc/m4f/spiffs_cc26xx.a(spiffs_gc.c.obj)
                                        0xefb (size before relaxing)
 .debug_str     0x0000000000003a96      0x266 /project/staging/core_examples/cc13xx_cc26xx_sdk/source/ti/display/lib/gcc/m4f/display_cc26x2x7.a(Display.c.obj)
                                        0x5e9 (size before relaxing)
 .debug_str     0x0000000000003cfc      0x39b /project/staging/core_examples/cc13xx_cc26xx_sdk/source/ti/display/lib/gcc/m4f/display_cc26x2x7.a(DisplayUart2.c.obj)
                                        0xfae (size before relaxing)
 .debug_str     0x0000000000004097      0x1ed /project/staging/core_examples/cc13xx_cc26xx_sdk/source/ti/drivers/lib/gcc/m4f/drivers_cc26x2x7.a(GPIO.c.obj)
                                        0x7d0 (size before relaxing)
 .debug_str     0x0000000000004284      0x26c /project/staging/core_examples/cc13xx_cc26xx_sdk/source/ti/drivers/lib/gcc/m4f/drivers_cc26x2x7.a(GPIOCC26XX.c.obj)
                                        0x97c (size before relaxing)
 .debug_str     0x00000000000044f0      0x110 /project/staging/core_examples/cc13xx_cc26xx_sdk/source/ti/drivers/lib/gcc/m4f/drivers_cc26x2x7.a(NVS.c.obj)
                                        0x9a7 (size before relaxing)
 .debug_str     0x0000000000004600      0x378 /project/staging/core_examples/cc13xx_cc26xx_sdk/source/ti/drivers/lib/gcc/m4f/drivers_cc26x2x7.a(NVSSPI25X.c.obj)
                                       0x106f (size before relaxing)
 .debug_str     0x0000000000004978      0xf31 /project/staging/core_examples/cc13xx_cc26xx_sdk/source/ti/drivers/lib/gcc/m4f/drivers_cc26x2x7.a(PowerCC26X2.c.obj)
                                       0x17a3 (size before relaxing)
 .debug_str     0x00000000000058a9      0x2fe /project/staging/core_examples/cc13xx_cc26xx_sdk/source/ti/drivers/lib/gcc/m4f/drivers_cc26x2x7.a(PowerCC26X2_calibrateRCOSC.c.obj)
                                        0xda7 (size before relaxing)
 .debug_str     0x0000000000005ba7      0x103 /project/staging/core_examples/cc13xx_cc26xx_sdk/source/ti/drivers/lib/gcc/m4f/drivers_cc26x2x7.a(SPI.c.obj)
                                        0xaf0 (size before relaxing)
 .debug_str     0x0000000000005caa      0x3d4 /project/staging/core_examples/cc13xx_cc26xx_sdk/source/ti/drivers/lib/gcc/m4f/drivers_cc26x2x7.a(UART2.c.obj)
                                       0x107e (size before relaxing)
 .debug_str     0x000000000000607e      0x599 /project/staging/core_examples/cc13xx_cc26xx_sdk/source/ti/drivers/lib/gcc/m4f/drivers_cc26x2x7.a(UART2CC26X2.c.obj)
                                       0x1762 (size before relaxing)
 .debug_str     0x0000000000006617      0x143 /project/staging/core_examples/cc13xx_cc26xx_sdk/source/ti/drivers/lib/gcc/m4f/drivers_cc26x2x7.a(GPIOCC26X2.c.obj)
                                        0x932 (size before relaxing)
 .debug_str     0x000000000000675a      0x158 /project/staging/core_examples/cc13xx_cc26xx_sdk/source/ti/drivers/lib/gcc/m4f/drivers_cc26x2x7.a(PowerCC26X2_calibrateRCOSC_helpers.c.obj)
                                        0x50c (size before relaxing)
 .debug_str     0x00000000000068b2      0x2f8 /project/staging/core_examples/cc13xx_cc26xx_sdk/source/ti/drivers/lib/gcc/m4f/drivers_cc26x2x7.a(PowerCC26X2_helpers.c.obj)
                                        0xbc3 (size before relaxing)
 .debug_str     0x0000000000006baa      0x43b /project/staging/core_examples/cc13xx_cc26xx_sdk/source/ti/drivers/lib/gcc/m4f/drivers_cc26x2x7.a(SPICC26X2DMA.c.obj)
                                       0x11d7 (size before relaxing)
 .debug_str     0x0000000000006fe5      0x103 /project/staging/core_examples/cc13xx_cc26xx_sdk/source/ti/drivers/lib/gcc/m4f/drivers_cc26x2x7.a(List.c.obj)
                                        0x79d (size before relaxing)
 .debug_str     0x00000000000070e8      0x141 /project/staging/core_examples/cc13xx_cc26xx_sdk/source/ti/drivers/lib/gcc/m4f/drivers_cc26x2x7.a(RingBuf.c.obj)
                                        0x499 (size before relaxing)
 .debug_str     0x0000000000007229      0x13a /project/staging/core_examples/cc13xx_cc26xx_sdk/source/ti/drivers/lib/gcc/m4f/drivers_cc26x2x7.a(UDMACC26XX.c.obj)
                                        0x582 (size before relaxing)
 .debug_str     0x0000000000007363      0x1f8 /project/staging/core_examples/cc13xx_cc26xx_sdk/kernel/nortos/lib/gcc/m4f/nortos_cc26x2x7.a(NoRTOS.c.obj)
                                        0x418 (size before relaxing)
 .debug_str     0x000000000000755b      0x139 /project/staging/core_examples/cc13xx_cc26xx_sdk/kernel/nortos/lib/gcc/m4f/nortos_cc26x2x7.a(MutexP_nortos.c.obj)
                                        0x7fb (size before relaxing)
 .debug_str     0x0000000000007694      0x1fd /project/staging/core_examples/cc13xx_cc26xx_sdk/kernel/nortos/lib/gcc/m4f/nortos_cc26x2x7.a(SemaphoreP_nortos.c.obj)
                                        0xa47 (size before relaxing)
 .debug_str     0x0000000000007891      0x35d /project/staging/core_examples/cc13xx_cc26xx_sdk/kernel/nortos/lib/gcc/m4f/nortos_cc26x2x7.a(SwiP_nortos.c.obj)
                                        0xaf3 (size before relaxing)
 .debug_str     0x0000000000007bee      0x148 /project/staging/core_examples/cc13xx_cc26xx_sdk/kernel/nortos/lib/gcc/m4f/nortos_cc26x2x7.a(SystemP_nortos.c.obj)
                                        0x812 (size before relaxing)
 .debug_str     0x0000000000007d36      0x4cf /project/staging/core_examples/cc13xx_cc26xx_sdk/kernel/nortos/lib/gcc/m4f/nortos_cc26x2x7.a(ClockPTimer_nortos.c.obj)
                                        0xea7 (size before relaxing)
 .debug_str     0x0000000000008205      0x124 /project/staging/core_examples/cc13xx_cc26xx_sdk/kernel/nortos/lib/gcc/m4f/nortos_cc26x2x7.a(QueueP_nortos.c.obj)
                                        0x41b (size before relaxing)
 .debug_str     0x0000000000008329      0x38f /project/staging/core_examples/cc13xx_cc26xx_sdk/kernel/nortos/lib/gcc/m4f/nortos_cc26x2x7.a(HwiPCC26XX_nortos.c.obj)
                                        0xb6f (size before relaxing)
 .debug_str     0x00000000000086b8      0x13d /project/staging/core_examples/cc13xx_cc26xx_sdk/kernel/nortos/lib/gcc/m4f/nortos_cc26x2x7.a(PowerCC26X2_nortos.c.obj)
                                        0xbfd (size before relaxing)
 .debug_str     0x00000000000087f5      0x275 /project/staging/core_examples/cc13xx_cc26xx_sdk/kernel/nortos/lib/gcc/m4f/nortos_cc26x2x7.a(TimerPCC26XX_nortos.c.obj)
                                        0xaa6 (size before relaxing)
 .debug_str     0x0000000000008a6a      0x1d3 /project/staging/core_examples/cc13xx_cc26xx_sdk/kernel/nortos/lib/gcc/m4f/nortos_cc26x2x7.a(startup_cc13x2_cc26x2_gcc.c.obj)
                                        0x846 (size before relaxing)
 .debug_str     0x0000000000008c3d      0x1ce /project/staging/core_examples/cc13xx_cc26xx_sdk/source/ti/devices/cc13x2x7_cc26x2x7/driverlib/bin/gcc/driverlib.lib(cpu.c.obj)
                                        0x376 (size before relaxing)
 .debug_str     0x0000000000008e0b      0x236 /project/staging/core_examples/cc13xx_cc26xx_sdk/source/ti/devices/cc13x2x7_cc26x2x7/driverlib/bin/gcc/driverlib.lib(interrupt.c.obj)
                                        0x4c1 (size before relaxing)
 .debug_str     0x0000000000009041      0x873 /project/staging/core_examples/cc13xx_cc26xx_sdk/source/ti/devices/cc13x2x7_cc26x2x7/driverlib/bin/gcc/driverlib.lib(osc.c.obj)
                                       0x10e2 (size before relaxing)
 .debug_str     0x00000000000098b4      0x3db /project/staging/core_examples/cc13xx_cc26xx_sdk/source/ti/devices/cc13x2x7_cc26x2x7/driverlib/bin/gcc/driverlib.lib(prcm.c.obj)
                                        0x676 (size before relaxing)
 .debug_str     0x0000000000009c8f      0x229 /project/staging/core_examples/cc13xx_cc26xx_sdk/source/ti/devices/cc13x2x7_cc26x2x7/driverlib/bin/gcc/driverlib.lib(setup.c.obj)
                                        0x4a3 (size before relaxing)
 .debug_str     0x0000000000009eb8      0x27b /project/staging/core_examples/cc13xx_cc26xx_sdk/source/ti/devices/cc13x2x7_cc26x2x7/driverlib/bin/gcc/driverlib.lib(sys_ctrl.c.obj)
                                        0x5d3 (size before relaxing)
 .debug_str     0x000000000000a133      0x132 /project/staging/core_examples/cc13xx_cc26xx_sdk/source/ti/devices/cc13x2x7_cc26x2x7/driverlib/bin/gcc/driverlib.lib(aux_sysif.c.obj)
                                        0x39a (size before relaxing)
 .debug_str     0x000000000000a265      0x70d /project/staging/core_examples/cc13xx_cc26xx_sdk/source/ti/devices/cc13x2x7_cc26x2x7/driverlib/bin/gcc/driverlib.lib(chipinfo.c.obj)
                                        0x986 (size before relaxing)

.comment        0x0000000000000000       0x79
 .comment       0x0000000000000000       0x79 spiffsexternal.obj
                                         0x7a (size before relaxing)
 .comment       0x0000000000000079       0x7a main_nortos.obj
 .comment       0x0000000000000079       0x7a ti_devices_config.obj
 .comment       0x0000000000000079       0x7a ti_drivers_config.obj
 .comment       0x0000000000000079       0x7a /project/staging/core_examples/cc13xx_cc26xx_sdk/source/third_party/spiffs/lib/gcc/m4f/spiffs_cc26xx.a(spiffs_hydrogen.c.obj)
 .comment       0x0000000000000079       0x7a /project/staging/core_examples/cc13xx_cc26xx_sdk/source/third_party/spiffs/lib/gcc/m4f/spiffs_cc26xx.a(spiffs_nucleus.c.obj)
 .comment       0x0000000000000079       0x7a /project/staging/core_examples/cc13xx_cc26xx_sdk/source/third_party/spiffs/lib/gcc/m4f/spiffs_cc26xx.a(SPIFFSNVS.c.obj)
 .comment       0x0000000000000079       0x7a /project/staging/core_examples/cc13xx_cc26xx_sdk/source/third_party/spiffs/lib/gcc/m4f/spiffs_cc26xx.a(spiffs_cache.c.obj)
 .comment       0x0000000000000079       0x7a /project/staging/core_examples/cc13xx_cc26xx_sdk/source/third_party/spiffs/lib/gcc/m4f/spiffs_cc26xx.a(spiffs_gc.c.obj)
 .comment       0x0000000000000079       0x7a /project/staging/core_examples/cc13xx_cc26xx_sdk/source/ti/display/lib/gcc/m4f/display_cc26x2x7.a(Display.c.obj)
 .comment       0x0000000000000079       0x7a /project/staging/core_examples/cc13xx_cc26xx_sdk/source/ti/display/lib/gcc/m4f/display_cc26x2x7.a(DisplayUart2.c.obj)
 .comment       0x0000000000000079       0x7a /project/staging/core_examples/cc13xx_cc26xx_sdk/source/ti/drivers/lib/gcc/m4f/drivers_cc26x2x7.a(GPIO.c.obj)
 .comment       0x0000000000000079       0x7a /project/staging/core_examples/cc13xx_cc26xx_sdk/source/ti/drivers/lib/gcc/m4f/drivers_cc26x2x7.a(GPIOCC26XX.c.obj)
 .comment       0x0000000000000079       0x7a /project/staging/core_examples/cc13xx_cc26xx_sdk/source/ti/drivers/lib/gcc/m4f/drivers_cc26x2x7.a(NVS.c.obj)
 .comment       0x0000000000000079       0x7a /project/staging/core_examples/cc13xx_cc26xx_sdk/source/ti/drivers/lib/gcc/m4f/drivers_cc26x2x7.a(NVSSPI25X.c.obj)
 .comment       0x0000000000000079       0x7a /project/staging/core_examples/cc13xx_cc26xx_sdk/source/ti/drivers/lib/gcc/m4f/drivers_cc26x2x7.a(PowerCC26X2.c.obj)
 .comment       0x0000000000000079       0x7a /project/staging/core_examples/cc13xx_cc26xx_sdk/source/ti/drivers/lib/gcc/m4f/drivers_cc26x2x7.a(PowerCC26X2_calibrateRCOSC.c.obj)
 .comment       0x0000000000000079       0x7a /project/staging/core_examples/cc13xx_cc26xx_sdk/source/ti/drivers/lib/gcc/m4f/drivers_cc26x2x7.a(SPI.c.obj)
 .comment       0x0000000000000079       0x7a /project/staging/core_examples/cc13xx_cc26xx_sdk/source/ti/drivers/lib/gcc/m4f/drivers_cc26x2x7.a(UART2.c.obj)
 .comment       0x0000000000000079       0x7a /project/staging/core_examples/cc13xx_cc26xx_sdk/source/ti/drivers/lib/gcc/m4f/drivers_cc26x2x7.a(UART2CC26X2.c.obj)
 .comment       0x0000000000000079       0x7a /project/staging/core_examples/cc13xx_cc26xx_sdk/source/ti/drivers/lib/gcc/m4f/drivers_cc26x2x7.a(GPIOCC26X2.c.obj)
 .comment       0x0000000000000079       0x7a /project/staging/core_examples/cc13xx_cc26xx_sdk/source/ti/drivers/lib/gcc/m4f/drivers_cc26x2x7.a(PowerCC26X2_calibrateRCOSC_helpers.c.obj)
 .comment       0x0000000000000079       0x7a /project/staging/core_examples/cc13xx_cc26xx_sdk/source/ti/drivers/lib/gcc/m4f/drivers_cc26x2x7.a(PowerCC26X2_helpers.c.obj)
 .comment       0x0000000000000079       0x7a /project/staging/core_examples/cc13xx_cc26xx_sdk/source/ti/drivers/lib/gcc/m4f/drivers_cc26x2x7.a(SPICC26X2DMA.c.obj)
 .comment       0x0000000000000079       0x7a /project/staging/core_examples/cc13xx_cc26xx_sdk/source/ti/drivers/lib/gcc/m4f/drivers_cc26x2x7.a(List.c.obj)
 .comment       0x0000000000000079       0x7a /project/staging/core_examples/cc13xx_cc26xx_sdk/source/ti/drivers/lib/gcc/m4f/drivers_cc26x2x7.a(RingBuf.c.obj)
 .comment       0x0000000000000079       0x7a /project/staging/core_examples/cc13xx_cc26xx_sdk/source/ti/drivers/lib/gcc/m4f/drivers_cc26x2x7.a(UDMACC26XX.c.obj)
 .comment       0x0000000000000079       0x7a /project/staging/core_examples/cc13xx_cc26xx_sdk/kernel/nortos/lib/gcc/m4f/nortos_cc26x2x7.a(NoRTOS.c.obj)
 .comment       0x0000000000000079       0x7a /project/staging/core_examples/cc13xx_cc26xx_sdk/kernel/nortos/lib/gcc/m4f/nortos_cc26x2x7.a(MutexP_nortos.c.obj)
 .comment       0x0000000000000079       0x7a /project/staging/core_examples/cc13xx_cc26xx_sdk/kernel/nortos/lib/gcc/m4f/nortos_cc26x2x7.a(SemaphoreP_nortos.c.obj)
 .comment       0x0000000000000079       0x7a /project/staging/core_examples/cc13xx_cc26xx_sdk/kernel/nortos/lib/gcc/m4f/nortos_cc26x2x7.a(SwiP_nortos.c.obj)
 .comment       0x0000000000000079       0x7a /project/staging/core_examples/cc13xx_cc26xx_sdk/kernel/nortos/lib/gcc/m4f/nortos_cc26x2x7.a(SystemP_nortos.c.obj)
 .comment       0x0000000000000079       0x7a /project/staging/core_examples/cc13xx_cc26xx_sdk/kernel/nortos/lib/gcc/m4f/nortos_cc26x2x7.a(ClockPTimer_nortos.c.obj)
 .comment       0x0000000000000079       0x7a /project/staging/core_examples/cc13xx_cc26xx_sdk/kernel/nortos/lib/gcc/m4f/nortos_cc26x2x7.a(QueueP_nortos.c.obj)
 .comment       0x0000000000000079       0x7a /project/staging/core_examples/cc13xx_cc26xx_sdk/kernel/nortos/lib/gcc/m4f/nortos_cc26x2x7.a(HwiPCC26XX_nortos.c.obj)
 .comment       0x0000000000000079       0x7a /project/staging/core_examples/cc13xx_cc26xx_sdk/kernel/nortos/lib/gcc/m4f/nortos_cc26x2x7.a(PowerCC26X2_nortos.c.obj)
 .comment       0x0000000000000079       0x7a /project/staging/core_examples/cc13xx_cc26xx_sdk/kernel/nortos/lib/gcc/m4f/nortos_cc26x2x7.a(TimerPCC26XX_nortos.c.obj)
 .comment       0x0000000000000079       0x7a /project/staging/core_examples/cc13xx_cc26xx_sdk/kernel/nortos/lib/gcc/m4f/nortos_cc26x2x7.a(startup_cc13x2_cc26x2_gcc.c.obj)
 .comment       0x0000000000000079       0x7a /project/staging/core_examples/cc13xx_cc26xx_sdk/source/ti/devices/cc13x2x7_cc26x2x7/driverlib/bin/gcc/driverlib.lib(cpu.c.obj)
 .comment       0x0000000000000079       0x7a /project/staging/core_examples/cc13xx_cc26xx_sdk/source/ti/devices/cc13x2x7_cc26x2x7/driverlib/bin/gcc/driverlib.lib(interrupt.c.obj)
 .comment       0x0000000000000079       0x7a /project/staging/core_examples/cc13xx_cc26xx_sdk/source/ti/devices/cc13x2x7_cc26x2x7/driverlib/bin/gcc/driverlib.lib(osc.c.obj)
 .comment       0x0000000000000079       0x7a /project/staging/core_examples/cc13xx_cc26xx_sdk/source/ti/devices/cc13x2x7_cc26x2x7/driverlib/bin/gcc/driverlib.lib(prcm.c.obj)
 .comment       0x0000000000000079       0x7a /project/staging/core_examples/cc13xx_cc26xx_sdk/source/ti/devices/cc13x2x7_cc26x2x7/driverlib/bin/gcc/driverlib.lib(setup.c.obj)
 .comment       0x0000000000000079       0x7a /project/staging/core_examples/cc13xx_cc26xx_sdk/source/ti/devices/cc13x2x7_cc26x2x7/driverlib/bin/gcc/driverlib.lib(sys_ctrl.c.obj)
 .comment       0x0000000000000079       0x7a /project/staging/core_examples/cc13xx_cc26xx_sdk/source/ti/devices/cc13x2x7_cc26x2x7/driverlib/bin/gcc/driverlib.lib(aux_sysif.c.obj)
 .comment       0x0000000000000079       0x7a /project/staging/core_examples/cc13xx_cc26xx_sdk/source/ti/devices/cc13x2x7_cc26x2x7/driverlib/bin/gcc/driverlib.lib(chipinfo.c.obj)

.ARM.attributes
                0x0000000000000000       0x32
 .ARM.attributes
                0x0000000000000000       0x34 spiffsexternal.obj
 .ARM.attributes
                0x0000000000000034       0x34 main_nortos.obj
 .ARM.attributes
                0x0000000000000068       0x39 ti_devices_config.obj
 .ARM.attributes
                0x00000000000000a1       0x34 ti_drivers_config.obj
 .ARM.attributes
                0x00000000000000d5       0x34 /project/staging/core_examples/cc13xx_cc26xx_sdk/source/third_party/spiffs/lib/gcc/m4f/spiffs_cc26xx.a(spiffs_hydrogen.c.obj)
 .ARM.attributes
                0x0000000000000109       0x34 /project/staging/core_examples/cc13xx_cc26xx_sdk/source/third_party/spiffs/lib/gcc/m4f/spiffs_cc26xx.a(spiffs_nucleus.c.obj)
 .ARM.attributes
                0x000000000000013d       0x34 /project/staging/core_examples/cc13xx_cc26xx_sdk/source/third_party/spiffs/lib/gcc/m4f/spiffs_cc26xx.a(SPIFFSNVS.c.obj)
 .ARM.attributes
                0x0000000000000171       0x34 /project/staging/core_examples/cc13xx_cc26xx_sdk/source/third_party/spiffs/lib/gcc/m4f/spiffs_cc26xx.a(spiffs_cache.c.obj)
 .ARM.attributes
                0x00000000000001a5       0x34 /project/staging/core_examples/cc13xx_cc26xx_sdk/source/third_party/spiffs/lib/gcc/m4f/spiffs_cc26xx.a(spiffs_gc.c.obj)
 .ARM.attributes
                0x00000000000001d9       0x34 /project/staging/core_examples/cc13xx_cc26xx_sdk/source/ti/display/lib/gcc/m4f/display_cc26x2x7.a(Display.c.obj)
 .ARM.attributes
                0x000000000000020d       0x34 /project/staging/core_examples/cc13xx_cc26xx_sdk/source/ti/display/lib/gcc/m4f/display_cc26x2x7.a(DisplayUart2.c.obj)
 .ARM.attributes
                0x0000000000000241       0x34 /project/staging/core_examples/cc13xx_cc26xx_sdk/source/ti/drivers/lib/gcc/m4f/drivers_cc26x2x7.a(GPIO.c.obj)
 .ARM.attributes
                0x0000000000000275       0x34 /project/staging/core_examples/cc13xx_cc26xx_sdk/source/ti/drivers/lib/gcc/m4f/drivers_cc26x2x7.a(GPIOCC26XX.c.obj)
 .ARM.attributes
                0x00000000000002a9       0x34 /project/staging/core_examples/cc13xx_cc26xx_sdk/source/ti/drivers/lib/gcc/m4f/drivers_cc26x2x7.a(NVS.c.obj)
 .ARM.attributes
                0x00000000000002dd       0x34 /project/staging/core_examples/cc13xx_cc26xx_sdk/source/ti/drivers/lib/gcc/m4f/drivers_cc26x2x7.a(NVSSPI25X.c.obj)
 .ARM.attributes
                0x0000000000000311       0x34 /project/staging/core_examples/cc13xx_cc26xx_sdk/source/ti/drivers/lib/gcc/m4f/drivers_cc26x2x7.a(PowerCC26X2.c.obj)
 .ARM.attributes
                0x0000000000000345       0x34 /project/staging/core_examples/cc13xx_cc26xx_sdk/source/ti/drivers/lib/gcc/m4f/drivers_cc26x2x7.a(PowerCC26X2_calibrateRCOSC.c.obj)
 .ARM.attributes
                0x0000000000000379       0x34 /project/staging/core_examples/cc13xx_cc26xx_sdk/source/ti/drivers/lib/gcc/m4f/drivers_cc26x2x7.a(SPI.c.obj)
 .ARM.attributes
                0x00000000000003ad       0x34 /project/staging/core_examples/cc13xx_cc26xx_sdk/source/ti/drivers/lib/gcc/m4f/drivers_cc26x2x7.a(UART2.c.obj)
 .ARM.attributes
                0x00000000000003e1       0x34 /project/staging/core_examples/cc13xx_cc26xx_sdk/source/ti/drivers/lib/gcc/m4f/drivers_cc26x2x7.a(UART2CC26X2.c.obj)
 .ARM.attributes
                0x0000000000000415       0x34 /project/staging/core_examples/cc13xx_cc26xx_sdk/source/ti/drivers/lib/gcc/m4f/drivers_cc26x2x7.a(GPIOCC26X2.c.obj)
 .ARM.attributes
                0x0000000000000449       0x34 /project/staging/core_examples/cc13xx_cc26xx_sdk/source/ti/drivers/lib/gcc/m4f/drivers_cc26x2x7.a(PowerCC26X2_calibrateRCOSC_helpers.c.obj)
 .ARM.attributes
                0x000000000000047d       0x34 /project/staging/core_examples/cc13xx_cc26xx_sdk/source/ti/drivers/lib/gcc/m4f/drivers_cc26x2x7.a(PowerCC26X2_helpers.c.obj)
 .ARM.attributes
                0x00000000000004b1       0x34 /project/staging/core_examples/cc13xx_cc26xx_sdk/source/ti/drivers/lib/gcc/m4f/drivers_cc26x2x7.a(SPICC26X2DMA.c.obj)
 .ARM.attributes
                0x00000000000004e5       0x34 /project/staging/core_examples/cc13xx_cc26xx_sdk/source/ti/drivers/lib/gcc/m4f/drivers_cc26x2x7.a(List.c.obj)
 .ARM.attributes
                0x0000000000000519       0x34 /project/staging/core_examples/cc13xx_cc26xx_sdk/source/ti/drivers/lib/gcc/m4f/drivers_cc26x2x7.a(RingBuf.c.obj)
 .ARM.attributes
                0x000000000000054d       0x34 /project/staging/core_examples/cc13xx_cc26xx_sdk/source/ti/drivers/lib/gcc/m4f/drivers_cc26x2x7.a(UDMACC26XX.c.obj)
 .ARM.attributes
                0x0000000000000581       0x34 /project/staging/core_examples/cc13xx_cc26xx_sdk/kernel/nortos/lib/gcc/m4f/nortos_cc26x2x7.a(NoRTOS.c.obj)
 .ARM.attributes
                0x00000000000005b5       0x34 /project/staging/core_examples/cc13xx_cc26xx_sdk/kernel/nortos/lib/gcc/m4f/nortos_cc26x2x7.a(MutexP_nortos.c.obj)
 .ARM.attributes
                0x00000000000005e9       0x34 /project/staging/core_examples/cc13xx_cc26xx_sdk/kernel/nortos/lib/gcc/m4f/nortos_cc26x2x7.a(SemaphoreP_nortos.c.obj)
 .ARM.attributes
                0x000000000000061d       0x34 /project/staging/core_examples/cc13xx_cc26xx_sdk/kernel/nortos/lib/gcc/m4f/nortos_cc26x2x7.a(SwiP_nortos.c.obj)
 .ARM.attributes
                0x0000000000000651       0x34 /project/staging/core_examples/cc13xx_cc26xx_sdk/kernel/nortos/lib/gcc/m4f/nortos_cc26x2x7.a(SystemP_nortos.c.obj)
 .ARM.attributes
                0x0000000000000685       0x34 /project/staging/core_examples/cc13xx_cc26xx_sdk/kernel/nortos/lib/gcc/m4f/nortos_cc26x2x7.a(ClockPTimer_nortos.c.obj)
 .ARM.attributes
                0x00000000000006b9       0x34 /project/staging/core_examples/cc13xx_cc26xx_sdk/kernel/nortos/lib/gcc/m4f/nortos_cc26x2x7.a(QueueP_nortos.c.obj)
 .ARM.attributes
                0x00000000000006ed       0x34 /project/staging/core_examples/cc13xx_cc26xx_sdk/kernel/nortos/lib/gcc/m4f/nortos_cc26x2x7.a(HwiPCC26XX_nortos.c.obj)
 .ARM.attributes
                0x0000000000000721       0x34 /project/staging/core_examples/cc13xx_cc26xx_sdk/kernel/nortos/lib/gcc/m4f/nortos_cc26x2x7.a(PowerCC26X2_nortos.c.obj)
 .ARM.attributes
                0x0000000000000755       0x34 /project/staging/core_examples/cc13xx_cc26xx_sdk/kernel/nortos/lib/gcc/m4f/nortos_cc26x2x7.a(TimerPCC26XX_nortos.c.obj)
 .ARM.attributes
                0x0000000000000789       0x34 /project/staging/core_examples/cc13xx_cc26xx_sdk/kernel/nortos/lib/gcc/m4f/nortos_cc26x2x7.a(startup_cc13x2_cc26x2_gcc.c.obj)
 .ARM.attributes
                0x00000000000007bd       0x34 /project/staging/core_examples/cc13xx_cc26xx_sdk/source/ti/devices/cc13x2x7_cc26x2x7/driverlib/bin/gcc/driverlib.lib(cpu.c.obj)
 .ARM.attributes
                0x00000000000007f1       0x34 /project/staging/core_examples/cc13xx_cc26xx_sdk/source/ti/devices/cc13x2x7_cc26x2x7/driverlib/bin/gcc/driverlib.lib(interrupt.c.obj)
 .ARM.attributes
                0x0000000000000825       0x34 /project/staging/core_examples/cc13xx_cc26xx_sdk/source/ti/devices/cc13x2x7_cc26x2x7/driverlib/bin/gcc/driverlib.lib(osc.c.obj)
 .ARM.attributes
                0x0000000000000859       0x34 /project/staging/core_examples/cc13xx_cc26xx_sdk/source/ti/devices/cc13x2x7_cc26x2x7/driverlib/bin/gcc/driverlib.lib(prcm.c.obj)
 .ARM.attributes
                0x000000000000088d       0x34 /project/staging/core_examples/cc13xx_cc26xx_sdk/source/ti/devices/cc13x2x7_cc26x2x7/driverlib/bin/gcc/driverlib.lib(setup.c.obj)
 .ARM.attributes
                0x00000000000008c1       0x34 /project/staging/core_examples/cc13xx_cc26xx_sdk/source/ti/devices/cc13x2x7_cc26x2x7/driverlib/bin/gcc/driverlib.lib(sys_ctrl.c.obj)
 .ARM.attributes
                0x00000000000008f5       0x34 /project/staging/core_examples/cc13xx_cc26xx_sdk/source/ti/devices/cc13x2x7_cc26x2x7/driverlib/bin/gcc/driverlib.lib(aux_sysif.c.obj)
 .ARM.attributes
                0x0000000000000929       0x34 /project/staging/core_examples/cc13xx_cc26xx_sdk/source/ti/devices/cc13x2x7_cc26x2x7/driverlib/bin/gcc/driverlib.lib(chipinfo.c.obj)
 .ARM.attributes
                0x000000000000095d       0x1e /home/developer/.conan/data/arm-none-eabi-gcc/9.2019.q4.major-0/library-msp/ga/package/44fcf6b9a7fb86b2586303e3db40189d3b511830/bin/../lib/gcc/arm-none-eabi/9.2.1/thumb/v7e-m+fp/hard/libgcc.a(_arm_muldf3.o)
 .ARM.attributes
                0x000000000000097b       0x1e /home/developer/.conan/data/arm-none-eabi-gcc/9.2019.q4.major-0/library-msp/ga/package/44fcf6b9a7fb86b2586303e3db40189d3b511830/bin/../lib/gcc/arm-none-eabi/9.2.1/thumb/v7e-m+fp/hard/libgcc.a(_arm_addsubdf3.o)
 .ARM.attributes
                0x0000000000000999       0x1e /home/developer/.conan/data/arm-none-eabi-gcc/9.2019.q4.major-0/library-msp/ga/package/44fcf6b9a7fb86b2586303e3db40189d3b511830/bin/../lib/gcc/arm-none-eabi/9.2.1/thumb/v7e-m+fp/hard/libgcc.a(_arm_cmpdf2.o)
 .ARM.attributes
                0x00000000000009b7       0x1e /home/developer/.conan/data/arm-none-eabi-gcc/9.2019.q4.major-0/library-msp/ga/package/44fcf6b9a7fb86b2586303e3db40189d3b511830/bin/../lib/gcc/arm-none-eabi/9.2.1/thumb/v7e-m+fp/hard/libgcc.a(_arm_fixdfsi.o)
 .ARM.attributes
                0x00000000000009d5       0x1e /home/developer/.conan/data/arm-none-eabi-gcc/9.2019.q4.major-0/library-msp/ga/package/44fcf6b9a7fb86b2586303e3db40189d3b511830/bin/../lib/gcc/arm-none-eabi/9.2.1/thumb/v7e-m+fp/hard/libgcc.a(_arm_fixunsdfsi.o)
 .ARM.attributes
                0x00000000000009f3       0x1e /home/developer/.conan/data/arm-none-eabi-gcc/9.2019.q4.major-0/library-msp/ga/package/44fcf6b9a7fb86b2586303e3db40189d3b511830/bin/../lib/gcc/arm-none-eabi/9.2.1/thumb/v7e-m+fp/hard/libgcc.a(_aeabi_uldivmod.o)
 .ARM.attributes
                0x0000000000000a11       0x34 /home/developer/.conan/data/arm-none-eabi-gcc/9.2019.q4.major-0/library-msp/ga/package/44fcf6b9a7fb86b2586303e3db40189d3b511830/bin/../lib/gcc/arm-none-eabi/9.2.1/thumb/v7e-m+fp/hard/libgcc.a(_udivmoddi4.o)
 .ARM.attributes
                0x0000000000000a45       0x1e /home/developer/.conan/data/arm-none-eabi-gcc/9.2019.q4.major-0/library-msp/ga/package/44fcf6b9a7fb86b2586303e3db40189d3b511830/bin/../lib/gcc/arm-none-eabi/9.2.1/thumb/v7e-m+fp/hard/libgcc.a(_dvmd_tls.o)
 .ARM.attributes
                0x0000000000000a63       0x34 /home/developer/.conan/data/arm-none-eabi-gcc/9.2019.q4.major-0/library-msp/ga/package/44fcf6b9a7fb86b2586303e3db40189d3b511830/bin/../lib/gcc/arm-none-eabi/9.2.1/../../../../arm-none-eabi/lib/thumb/v7e-m+fp/hard/libc_nano.a(lib_a-malloc.o)
 .ARM.attributes
                0x0000000000000a97       0x34 /home/developer/.conan/data/arm-none-eabi-gcc/9.2019.q4.major-0/library-msp/ga/package/44fcf6b9a7fb86b2586303e3db40189d3b511830/bin/../lib/gcc/arm-none-eabi/9.2.1/../../../../arm-none-eabi/lib/thumb/v7e-m+fp/hard/libc_nano.a(lib_a-memcpy-stub.o)
 .ARM.attributes
                0x0000000000000acb       0x34 /home/developer/.conan/data/arm-none-eabi-gcc/9.2019.q4.major-0/library-msp/ga/package/44fcf6b9a7fb86b2586303e3db40189d3b511830/bin/../lib/gcc/arm-none-eabi/9.2.1/../../../../arm-none-eabi/lib/thumb/v7e-m+fp/hard/libc_nano.a(lib_a-memset.o)
 .ARM.attributes
                0x0000000000000aff       0x34 /home/developer/.conan/data/arm-none-eabi-gcc/9.2019.q4.major-0/library-msp/ga/package/44fcf6b9a7fb86b2586303e3db40189d3b511830/bin/../lib/gcc/arm-none-eabi/9.2.1/../../../../arm-none-eabi/lib/thumb/v7e-m+fp/hard/libc_nano.a(lib_a-nano-freer.o)
 .ARM.attributes
                0x0000000000000b33       0x34 /home/developer/.conan/data/arm-none-eabi-gcc/9.2019.q4.major-0/library-msp/ga/package/44fcf6b9a7fb86b2586303e3db40189d3b511830/bin/../lib/gcc/arm-none-eabi/9.2.1/../../../../arm-none-eabi/lib/thumb/v7e-m+fp/hard/libc_nano.a(lib_a-nano-mallocr.o)
 .ARM.attributes
                0x0000000000000b67       0x34 /home/developer/.conan/data/arm-none-eabi-gcc/9.2019.q4.major-0/library-msp/ga/package/44fcf6b9a7fb86b2586303e3db40189d3b511830/bin/../lib/gcc/arm-none-eabi/9.2.1/../../../../arm-none-eabi/lib/thumb/v7e-m+fp/hard/libc_nano.a(lib_a-sbrkr.o)
 .ARM.attributes
                0x0000000000000b9b       0x1c /home/developer/.conan/data/arm-none-eabi-gcc/9.2019.q4.major-0/library-msp/ga/package/44fcf6b9a7fb86b2586303e3db40189d3b511830/bin/../lib/gcc/arm-none-eabi/9.2.1/../../../../arm-none-eabi/lib/thumb/v7e-m+fp/hard/libc_nano.a(lib_a-strcmp.o)
 .ARM.attributes
                0x0000000000000bb7       0x17 /home/developer/.conan/data/arm-none-eabi-gcc/9.2019.q4.major-0/library-msp/ga/package/44fcf6b9a7fb86b2586303e3db40189d3b511830/bin/../lib/gcc/arm-none-eabi/9.2.1/../../../../arm-none-eabi/lib/thumb/v7e-m+fp/hard/libc_nano.a(lib_a-strlen.o)
 .ARM.attributes
                0x0000000000000bce       0x34 /home/developer/.conan/data/arm-none-eabi-gcc/9.2019.q4.major-0/library-msp/ga/package/44fcf6b9a7fb86b2586303e3db40189d3b511830/bin/../lib/gcc/arm-none-eabi/9.2.1/../../../../arm-none-eabi/lib/thumb/v7e-m+fp/hard/libc_nano.a(lib_a-strncpy.o)
 .ARM.attributes
                0x0000000000000c02       0x32 /home/developer/.conan/data/arm-none-eabi-gcc/9.2019.q4.major-0/library-msp/ga/package/44fcf6b9a7fb86b2586303e3db40189d3b511830/bin/../lib/gcc/arm-none-eabi/9.2.1/../../../../arm-none-eabi/lib/thumb/v7e-m+fp/hard/libc_nano.a(lib_a-impure.o)
 .ARM.attributes
                0x0000000000000c34       0x34 /home/developer/.conan/data/arm-none-eabi-gcc/9.2019.q4.major-0/library-msp/ga/package/44fcf6b9a7fb86b2586303e3db40189d3b511830/bin/../lib/gcc/arm-none-eabi/9.2.1/../../../../arm-none-eabi/lib/thumb/v7e-m+fp/hard/libc_nano.a(lib_a-mlock.o)
 .ARM.attributes
                0x0000000000000c68       0x34 /home/developer/.conan/data/arm-none-eabi-gcc/9.2019.q4.major-0/library-msp/ga/package/44fcf6b9a7fb86b2586303e3db40189d3b511830/bin/../lib/gcc/arm-none-eabi/9.2.1/../../../../arm-none-eabi/lib/thumb/v7e-m+fp/hard/libc_nano.a(lib_a-reent.o)
 .ARM.attributes
                0x0000000000000c9c       0x34 /home/developer/.conan/data/arm-none-eabi-gcc/9.2019.q4.major-0/library-msp/ga/package/44fcf6b9a7fb86b2586303e3db40189d3b511830/bin/../lib/gcc/arm-none-eabi/9.2.1/../../../../arm-none-eabi/lib/thumb/v7e-m+fp/hard/libc_nano.a(lib_a-lock.o)
 .ARM.attributes
                0x0000000000000cd0       0x34 /home/developer/.conan/data/arm-none-eabi-gcc/9.2019.q4.major-0/library-msp/ga/package/44fcf6b9a7fb86b2586303e3db40189d3b511830/bin/../lib/gcc/arm-none-eabi/9.2.1/../../../../arm-none-eabi/lib/thumb/v7e-m+fp/hard/libnosys.a(sbrk.o)

.debug_frame    0x0000000000000000     0x45e8
 .debug_frame   0x0000000000000000       0x3c spiffsexternal.obj
 .debug_frame   0x000000000000003c       0x28 main_nortos.obj
 .debug_frame   0x0000000000000064       0x9c ti_drivers_config.obj
 .debug_frame   0x0000000000000100      0x610 /project/staging/core_examples/cc13xx_cc26xx_sdk/source/third_party/spiffs/lib/gcc/m4f/spiffs_cc26xx.a(spiffs_hydrogen.c.obj)
 .debug_frame   0x0000000000000710      0x76c /project/staging/core_examples/cc13xx_cc26xx_sdk/source/third_party/spiffs/lib/gcc/m4f/spiffs_cc26xx.a(spiffs_nucleus.c.obj)
 .debug_frame   0x0000000000000e7c       0xc4 /project/staging/core_examples/cc13xx_cc26xx_sdk/source/third_party/spiffs/lib/gcc/m4f/spiffs_cc26xx.a(SPIFFSNVS.c.obj)
 .debug_frame   0x0000000000000f40      0x174 /project/staging/core_examples/cc13xx_cc26xx_sdk/source/third_party/spiffs/lib/gcc/m4f/spiffs_cc26xx.a(spiffs_cache.c.obj)
 .debug_frame   0x00000000000010b4      0x114 /project/staging/core_examples/cc13xx_cc26xx_sdk/source/third_party/spiffs/lib/gcc/m4f/spiffs_cc26xx.a(spiffs_gc.c.obj)
 .debug_frame   0x00000000000011c8       0xf4 /project/staging/core_examples/cc13xx_cc26xx_sdk/source/ti/display/lib/gcc/m4f/display_cc26x2x7.a(Display.c.obj)
 .debug_frame   0x00000000000012bc      0x1d8 /project/staging/core_examples/cc13xx_cc26xx_sdk/source/ti/display/lib/gcc/m4f/display_cc26x2x7.a(DisplayUart2.c.obj)
 .debug_frame   0x0000000000001494       0x6c /project/staging/core_examples/cc13xx_cc26xx_sdk/source/ti/drivers/lib/gcc/m4f/drivers_cc26x2x7.a(GPIO.c.obj)
 .debug_frame   0x0000000000001500      0x128 /project/staging/core_examples/cc13xx_cc26xx_sdk/source/ti/drivers/lib/gcc/m4f/drivers_cc26x2x7.a(GPIOCC26XX.c.obj)
 .debug_frame   0x0000000000001628      0x108 /project/staging/core_examples/cc13xx_cc26xx_sdk/source/ti/drivers/lib/gcc/m4f/drivers_cc26x2x7.a(NVS.c.obj)
 .debug_frame   0x0000000000001730      0x278 /project/staging/core_examples/cc13xx_cc26xx_sdk/source/ti/drivers/lib/gcc/m4f/drivers_cc26x2x7.a(NVSSPI25X.c.obj)
 .debug_frame   0x00000000000019a8      0x3c0 /project/staging/core_examples/cc13xx_cc26xx_sdk/source/ti/drivers/lib/gcc/m4f/drivers_cc26x2x7.a(PowerCC26X2.c.obj)
 .debug_frame   0x0000000000001d68       0xc8 /project/staging/core_examples/cc13xx_cc26xx_sdk/source/ti/drivers/lib/gcc/m4f/drivers_cc26x2x7.a(PowerCC26X2_calibrateRCOSC.c.obj)
 .debug_frame   0x0000000000001e30       0xac /project/staging/core_examples/cc13xx_cc26xx_sdk/source/ti/drivers/lib/gcc/m4f/drivers_cc26x2x7.a(SPI.c.obj)
 .debug_frame   0x0000000000001edc      0x250 /project/staging/core_examples/cc13xx_cc26xx_sdk/source/ti/drivers/lib/gcc/m4f/drivers_cc26x2x7.a(UART2.c.obj)
 .debug_frame   0x000000000000212c      0x284 /project/staging/core_examples/cc13xx_cc26xx_sdk/source/ti/drivers/lib/gcc/m4f/drivers_cc26x2x7.a(UART2CC26X2.c.obj)
 .debug_frame   0x00000000000023b0       0x64 /project/staging/core_examples/cc13xx_cc26xx_sdk/source/ti/drivers/lib/gcc/m4f/drivers_cc26x2x7.a(GPIOCC26X2.c.obj)
 .debug_frame   0x0000000000002414      0x138 /project/staging/core_examples/cc13xx_cc26xx_sdk/source/ti/drivers/lib/gcc/m4f/drivers_cc26x2x7.a(PowerCC26X2_calibrateRCOSC_helpers.c.obj)
 .debug_frame   0x000000000000254c      0x1d0 /project/staging/core_examples/cc13xx_cc26xx_sdk/source/ti/drivers/lib/gcc/m4f/drivers_cc26x2x7.a(PowerCC26X2_helpers.c.obj)
 .debug_frame   0x000000000000271c      0x250 /project/staging/core_examples/cc13xx_cc26xx_sdk/source/ti/drivers/lib/gcc/m4f/drivers_cc26x2x7.a(SPICC26X2DMA.c.obj)
 .debug_frame   0x000000000000296c       0xf8 /project/staging/core_examples/cc13xx_cc26xx_sdk/source/ti/drivers/lib/gcc/m4f/drivers_cc26x2x7.a(List.c.obj)
 .debug_frame   0x0000000000002a64      0x180 /project/staging/core_examples/cc13xx_cc26xx_sdk/source/ti/drivers/lib/gcc/m4f/drivers_cc26x2x7.a(RingBuf.c.obj)
 .debug_frame   0x0000000000002be4       0x84 /project/staging/core_examples/cc13xx_cc26xx_sdk/source/ti/drivers/lib/gcc/m4f/drivers_cc26x2x7.a(UDMACC26XX.c.obj)
 .debug_frame   0x0000000000002c68       0x4c /project/staging/core_examples/cc13xx_cc26xx_sdk/kernel/nortos/lib/gcc/m4f/nortos_cc26x2x7.a(NoRTOS.c.obj)
 .debug_frame   0x0000000000002cb4       0x80 /project/staging/core_examples/cc13xx_cc26xx_sdk/kernel/nortos/lib/gcc/m4f/nortos_cc26x2x7.a(MutexP_nortos.c.obj)
 .debug_frame   0x0000000000002d34      0x150 /project/staging/core_examples/cc13xx_cc26xx_sdk/kernel/nortos/lib/gcc/m4f/nortos_cc26x2x7.a(SemaphoreP_nortos.c.obj)
 .debug_frame   0x0000000000002e84      0x274 /project/staging/core_examples/cc13xx_cc26xx_sdk/kernel/nortos/lib/gcc/m4f/nortos_cc26x2x7.a(SwiP_nortos.c.obj)
 .debug_frame   0x00000000000030f8       0x94 /project/staging/core_examples/cc13xx_cc26xx_sdk/kernel/nortos/lib/gcc/m4f/nortos_cc26x2x7.a(SystemP_nortos.c.obj)
 .debug_frame   0x000000000000318c      0x2e8 /project/staging/core_examples/cc13xx_cc26xx_sdk/kernel/nortos/lib/gcc/m4f/nortos_cc26x2x7.a(ClockPTimer_nortos.c.obj)
 .debug_frame   0x0000000000003474      0x134 /project/staging/core_examples/cc13xx_cc26xx_sdk/kernel/nortos/lib/gcc/m4f/nortos_cc26x2x7.a(QueueP_nortos.c.obj)
 .debug_frame   0x00000000000035a8      0x1c0 /project/staging/core_examples/cc13xx_cc26xx_sdk/kernel/nortos/lib/gcc/m4f/nortos_cc26x2x7.a(HwiPCC26XX_nortos.c.obj)
 .debug_frame   0x0000000000003768       0x6c /project/staging/core_examples/cc13xx_cc26xx_sdk/kernel/nortos/lib/gcc/m4f/nortos_cc26x2x7.a(PowerCC26X2_nortos.c.obj)
 .debug_frame   0x00000000000037d4      0x180 /project/staging/core_examples/cc13xx_cc26xx_sdk/kernel/nortos/lib/gcc/m4f/nortos_cc26x2x7.a(TimerPCC26XX_nortos.c.obj)
 .debug_frame   0x0000000000003954       0x8c /project/staging/core_examples/cc13xx_cc26xx_sdk/kernel/nortos/lib/gcc/m4f/nortos_cc26x2x7.a(startup_cc13x2_cc26x2_gcc.c.obj)
 .debug_frame   0x00000000000039e0       0x60 /project/staging/core_examples/cc13xx_cc26xx_sdk/source/ti/devices/cc13x2x7_cc26x2x7/driverlib/bin/gcc/driverlib.lib(cpu.c.obj)
 .debug_frame   0x0000000000003a40       0xec /project/staging/core_examples/cc13xx_cc26xx_sdk/source/ti/devices/cc13x2x7_cc26x2x7/driverlib/bin/gcc/driverlib.lib(interrupt.c.obj)
 .debug_frame   0x0000000000003b2c      0x28c /project/staging/core_examples/cc13xx_cc26xx_sdk/source/ti/devices/cc13x2x7_cc26x2x7/driverlib/bin/gcc/driverlib.lib(osc.c.obj)
 .debug_frame   0x0000000000003db8      0x180 /project/staging/core_examples/cc13xx_cc26xx_sdk/source/ti/devices/cc13x2x7_cc26x2x7/driverlib/bin/gcc/driverlib.lib(prcm.c.obj)
 .debug_frame   0x0000000000003f38       0x44 /project/staging/core_examples/cc13xx_cc26xx_sdk/source/ti/devices/cc13x2x7_cc26x2x7/driverlib/bin/gcc/driverlib.lib(setup.c.obj)
 .debug_frame   0x0000000000003f7c       0xd4 /project/staging/core_examples/cc13xx_cc26xx_sdk/source/ti/devices/cc13x2x7_cc26x2x7/driverlib/bin/gcc/driverlib.lib(sys_ctrl.c.obj)
 .debug_frame   0x0000000000004050       0x30 /project/staging/core_examples/cc13xx_cc26xx_sdk/source/ti/devices/cc13x2x7_cc26x2x7/driverlib/bin/gcc/driverlib.lib(aux_sysif.c.obj)
 .debug_frame   0x0000000000004080       0x70 /project/staging/core_examples/cc13xx_cc26xx_sdk/source/ti/devices/cc13x2x7_cc26x2x7/driverlib/bin/gcc/driverlib.lib(chipinfo.c.obj)
 .debug_frame   0x00000000000040f0       0x30 /home/developer/.conan/data/arm-none-eabi-gcc/9.2019.q4.major-0/library-msp/ga/package/44fcf6b9a7fb86b2586303e3db40189d3b511830/bin/../lib/gcc/arm-none-eabi/9.2.1/thumb/v7e-m+fp/hard/libgcc.a(_arm_muldf3.o)
 .debug_frame   0x0000000000004120       0xac /home/developer/.conan/data/arm-none-eabi-gcc/9.2019.q4.major-0/library-msp/ga/package/44fcf6b9a7fb86b2586303e3db40189d3b511830/bin/../lib/gcc/arm-none-eabi/9.2.1/thumb/v7e-m+fp/hard/libgcc.a(_arm_addsubdf3.o)
 .debug_frame   0x00000000000041cc       0xc4 /home/developer/.conan/data/arm-none-eabi-gcc/9.2019.q4.major-0/library-msp/ga/package/44fcf6b9a7fb86b2586303e3db40189d3b511830/bin/../lib/gcc/arm-none-eabi/9.2.1/thumb/v7e-m+fp/hard/libgcc.a(_arm_cmpdf2.o)
 .debug_frame   0x0000000000004290       0x24 /home/developer/.conan/data/arm-none-eabi-gcc/9.2019.q4.major-0/library-msp/ga/package/44fcf6b9a7fb86b2586303e3db40189d3b511830/bin/../lib/gcc/arm-none-eabi/9.2.1/thumb/v7e-m+fp/hard/libgcc.a(_arm_fixdfsi.o)
 .debug_frame   0x00000000000042b4       0x24 /home/developer/.conan/data/arm-none-eabi-gcc/9.2019.q4.major-0/library-msp/ga/package/44fcf6b9a7fb86b2586303e3db40189d3b511830/bin/../lib/gcc/arm-none-eabi/9.2.1/thumb/v7e-m+fp/hard/libgcc.a(_arm_fixunsdfsi.o)
 .debug_frame   0x00000000000042d8       0x2c /home/developer/.conan/data/arm-none-eabi-gcc/9.2019.q4.major-0/library-msp/ga/package/44fcf6b9a7fb86b2586303e3db40189d3b511830/bin/../lib/gcc/arm-none-eabi/9.2.1/thumb/v7e-m+fp/hard/libgcc.a(_aeabi_uldivmod.o)
 .debug_frame   0x0000000000004304       0x34 /home/developer/.conan/data/arm-none-eabi-gcc/9.2019.q4.major-0/library-msp/ga/package/44fcf6b9a7fb86b2586303e3db40189d3b511830/bin/../lib/gcc/arm-none-eabi/9.2.1/thumb/v7e-m+fp/hard/libgcc.a(_udivmoddi4.o)
 .debug_frame   0x0000000000004338       0x30 /home/developer/.conan/data/arm-none-eabi-gcc/9.2019.q4.major-0/library-msp/ga/package/44fcf6b9a7fb86b2586303e3db40189d3b511830/bin/../lib/gcc/arm-none-eabi/9.2.1/../../../../arm-none-eabi/lib/thumb/v7e-m+fp/hard/libc_nano.a(lib_a-malloc.o)
 .debug_frame   0x0000000000004368       0x28 /home/developer/.conan/data/arm-none-eabi-gcc/9.2019.q4.major-0/library-msp/ga/package/44fcf6b9a7fb86b2586303e3db40189d3b511830/bin/../lib/gcc/arm-none-eabi/9.2.1/../../../../arm-none-eabi/lib/thumb/v7e-m+fp/hard/libc_nano.a(lib_a-memcpy-stub.o)
 .debug_frame   0x0000000000004390       0x20 /home/developer/.conan/data/arm-none-eabi-gcc/9.2019.q4.major-0/library-msp/ga/package/44fcf6b9a7fb86b2586303e3db40189d3b511830/bin/../lib/gcc/arm-none-eabi/9.2.1/../../../../arm-none-eabi/lib/thumb/v7e-m+fp/hard/libc_nano.a(lib_a-memset.o)
 .debug_frame   0x00000000000043b0       0x38 /home/developer/.conan/data/arm-none-eabi-gcc/9.2019.q4.major-0/library-msp/ga/package/44fcf6b9a7fb86b2586303e3db40189d3b511830/bin/../lib/gcc/arm-none-eabi/9.2.1/../../../../arm-none-eabi/lib/thumb/v7e-m+fp/hard/libc_nano.a(lib_a-nano-freer.o)
 .debug_frame   0x00000000000043e8       0x30 /home/developer/.conan/data/arm-none-eabi-gcc/9.2019.q4.major-0/library-msp/ga/package/44fcf6b9a7fb86b2586303e3db40189d3b511830/bin/../lib/gcc/arm-none-eabi/9.2.1/../../../../arm-none-eabi/lib/thumb/v7e-m+fp/hard/libc_nano.a(lib_a-nano-mallocr.o)
 .debug_frame   0x0000000000004418       0x2c /home/developer/.conan/data/arm-none-eabi-gcc/9.2019.q4.major-0/library-msp/ga/package/44fcf6b9a7fb86b2586303e3db40189d3b511830/bin/../lib/gcc/arm-none-eabi/9.2.1/../../../../arm-none-eabi/lib/thumb/v7e-m+fp/hard/libc_nano.a(lib_a-sbrkr.o)
 .debug_frame   0x0000000000004444       0x20 /home/developer/.conan/data/arm-none-eabi-gcc/9.2019.q4.major-0/library-msp/ga/package/44fcf6b9a7fb86b2586303e3db40189d3b511830/bin/../lib/gcc/arm-none-eabi/9.2.1/../../../../arm-none-eabi/lib/thumb/v7e-m+fp/hard/libc_nano.a(lib_a-strcmp.o)
 .debug_frame   0x0000000000004464       0x28 /home/developer/.conan/data/arm-none-eabi-gcc/9.2019.q4.major-0/library-msp/ga/package/44fcf6b9a7fb86b2586303e3db40189d3b511830/bin/../lib/gcc/arm-none-eabi/9.2.1/../../../../arm-none-eabi/lib/thumb/v7e-m+fp/hard/libc_nano.a(lib_a-strncpy.o)
 .debug_frame   0x000000000000448c       0x30 /home/developer/.conan/data/arm-none-eabi-gcc/9.2019.q4.major-0/library-msp/ga/package/44fcf6b9a7fb86b2586303e3db40189d3b511830/bin/../lib/gcc/arm-none-eabi/9.2.1/../../../../arm-none-eabi/lib/thumb/v7e-m+fp/hard/libc_nano.a(lib_a-mlock.o)
 .debug_frame   0x00000000000044bc       0x5c /home/developer/.conan/data/arm-none-eabi-gcc/9.2019.q4.major-0/library-msp/ga/package/44fcf6b9a7fb86b2586303e3db40189d3b511830/bin/../lib/gcc/arm-none-eabi/9.2.1/../../../../arm-none-eabi/lib/thumb/v7e-m+fp/hard/libc_nano.a(lib_a-reent.o)
 .debug_frame   0x0000000000004518       0xb0 /home/developer/.conan/data/arm-none-eabi-gcc/9.2019.q4.major-0/library-msp/ga/package/44fcf6b9a7fb86b2586303e3db40189d3b511830/bin/../lib/gcc/arm-none-eabi/9.2.1/../../../../arm-none-eabi/lib/thumb/v7e-m+fp/hard/libc_nano.a(lib_a-lock.o)
 .debug_frame   0x00000000000045c8       0x20 /home/developer/.conan/data/arm-none-eabi-gcc/9.2019.q4.major-0/library-msp/ga/package/44fcf6b9a7fb86b2586303e3db40189d3b511830/bin/../lib/gcc/arm-none-eabi/9.2.1/../../../../arm-none-eabi/lib/thumb/v7e-m+fp/hard/libnosys.a(sbrk.o)
